Archive member included to satisfy reference by file (symbol)

/opt/gcc-arm-none-eabi/bin/../lib/gcc/arm-none-eabi/8.2.1/../../../../arm-none-eabi/lib/thumb/v7e-m+fp/hard/libm.a(lib_a-sf_round.o)
                              bin/obj/emu.o (roundf)
/opt/gcc-arm-none-eabi/bin/../lib/gcc/arm-none-eabi/8.2.1/../../../../arm-none-eabi/lib/thumb/v7e-m+fp/hard/libc_nano.a(lib_a-malloc.o)
                              bin/obj/main.o (malloc)
/opt/gcc-arm-none-eabi/bin/../lib/gcc/arm-none-eabi/8.2.1/../../../../arm-none-eabi/lib/thumb/v7e-m+fp/hard/libc_nano.a(lib_a-memcpy-stub.o)
                              bin/obj/md5/md5.o (memcpy)
/opt/gcc-arm-none-eabi/bin/../lib/gcc/arm-none-eabi/8.2.1/../../../../arm-none-eabi/lib/thumb/v7e-m+fp/hard/libc_nano.a(lib_a-memset.o)
                              bin/obj/md5/md5.o (memset)
/opt/gcc-arm-none-eabi/bin/../lib/gcc/arm-none-eabi/8.2.1/../../../../arm-none-eabi/lib/thumb/v7e-m+fp/hard/libc_nano.a(lib_a-nano-freer.o)
                              /opt/gcc-arm-none-eabi/bin/../lib/gcc/arm-none-eabi/8.2.1/../../../../arm-none-eabi/lib/thumb/v7e-m+fp/hard/libc_nano.a(lib_a-malloc.o) (_free_r)
/opt/gcc-arm-none-eabi/bin/../lib/gcc/arm-none-eabi/8.2.1/../../../../arm-none-eabi/lib/thumb/v7e-m+fp/hard/libc_nano.a(lib_a-nano-mallocr.o)
                              /opt/gcc-arm-none-eabi/bin/../lib/gcc/arm-none-eabi/8.2.1/../../../../arm-none-eabi/lib/thumb/v7e-m+fp/hard/libc_nano.a(lib_a-malloc.o) (_malloc_r)
/opt/gcc-arm-none-eabi/bin/../lib/gcc/arm-none-eabi/8.2.1/../../../../arm-none-eabi/lib/thumb/v7e-m+fp/hard/libc_nano.a(lib_a-sbrkr.o)
                              /opt/gcc-arm-none-eabi/bin/../lib/gcc/arm-none-eabi/8.2.1/../../../../arm-none-eabi/lib/thumb/v7e-m+fp/hard/libc_nano.a(lib_a-nano-mallocr.o) (_sbrk_r)
/opt/gcc-arm-none-eabi/bin/../lib/gcc/arm-none-eabi/8.2.1/../../../../arm-none-eabi/lib/thumb/v7e-m+fp/hard/libc_nano.a(lib_a-impure.o)
                              /opt/gcc-arm-none-eabi/bin/../lib/gcc/arm-none-eabi/8.2.1/../../../../arm-none-eabi/lib/thumb/v7e-m+fp/hard/libc_nano.a(lib_a-malloc.o) (_impure_ptr)
/opt/gcc-arm-none-eabi/bin/../lib/gcc/arm-none-eabi/8.2.1/../../../../arm-none-eabi/lib/thumb/v7e-m+fp/hard/libc_nano.a(lib_a-mlock.o)
                              /opt/gcc-arm-none-eabi/bin/../lib/gcc/arm-none-eabi/8.2.1/../../../../arm-none-eabi/lib/thumb/v7e-m+fp/hard/libc_nano.a(lib_a-nano-freer.o) (__malloc_lock)
/opt/gcc-arm-none-eabi/bin/../lib/gcc/arm-none-eabi/8.2.1/../../../../arm-none-eabi/lib/thumb/v7e-m+fp/hard/libc_nano.a(lib_a-reent.o)
                              /opt/gcc-arm-none-eabi/bin/../lib/gcc/arm-none-eabi/8.2.1/../../../../arm-none-eabi/lib/thumb/v7e-m+fp/hard/libc_nano.a(lib_a-sbrkr.o) (errno)
/opt/gcc-arm-none-eabi/bin/../lib/gcc/arm-none-eabi/8.2.1/../../../../arm-none-eabi/lib/thumb/v7e-m+fp/hard/libc_nano.a(lib_a-lock.o)
                              /opt/gcc-arm-none-eabi/bin/../lib/gcc/arm-none-eabi/8.2.1/../../../../arm-none-eabi/lib/thumb/v7e-m+fp/hard/libc_nano.a(lib_a-mlock.o) (__retarget_lock_acquire_recursive)
/opt/gcc-arm-none-eabi/bin/../lib/gcc/arm-none-eabi/8.2.1/thumb/v7e-m+fp/hard/libgcc.a(_arm_addsubdf3.o)
                              bin/obj/printf/printf.o (__aeabi_dsub)
/opt/gcc-arm-none-eabi/bin/../lib/gcc/arm-none-eabi/8.2.1/thumb/v7e-m+fp/hard/libgcc.a(_arm_muldivdf3.o)
                              bin/obj/printf/printf.o (__aeabi_dmul)
/opt/gcc-arm-none-eabi/bin/../lib/gcc/arm-none-eabi/8.2.1/thumb/v7e-m+fp/hard/libgcc.a(_arm_cmpdf2.o)
                              bin/obj/printf/printf.o (__aeabi_dcmpeq)
/opt/gcc-arm-none-eabi/bin/../lib/gcc/arm-none-eabi/8.2.1/thumb/v7e-m+fp/hard/libgcc.a(_arm_fixdfsi.o)
                              bin/obj/printf/printf.o (__aeabi_d2iz)
/opt/gcc-arm-none-eabi/bin/../lib/gcc/arm-none-eabi/8.2.1/thumb/v7e-m+fp/hard/libgcc.a(_arm_fixunsdfsi.o)
                              bin/obj/printf/printf.o (__aeabi_d2uiz)
/opt/gcc-arm-none-eabi/bin/../lib/gcc/arm-none-eabi/8.2.1/thumb/v7e-m+fp/hard/libgcc.a(_aeabi_uldivmod.o)
                              bin/obj/printf/printf.o (__aeabi_uldivmod)
/opt/gcc-arm-none-eabi/bin/../lib/gcc/arm-none-eabi/8.2.1/thumb/v7e-m+fp/hard/libgcc.a(_udivmoddi4.o)
                              /opt/gcc-arm-none-eabi/bin/../lib/gcc/arm-none-eabi/8.2.1/thumb/v7e-m+fp/hard/libgcc.a(_aeabi_uldivmod.o) (__udivmoddi4)
/opt/gcc-arm-none-eabi/bin/../lib/gcc/arm-none-eabi/8.2.1/thumb/v7e-m+fp/hard/libgcc.a(_dvmd_tls.o)
                              /opt/gcc-arm-none-eabi/bin/../lib/gcc/arm-none-eabi/8.2.1/thumb/v7e-m+fp/hard/libgcc.a(_aeabi_uldivmod.o) (__aeabi_ldiv0)
/opt/gcc-arm-none-eabi/bin/../lib/gcc/arm-none-eabi/8.2.1/../../../../arm-none-eabi/lib/thumb/v7e-m+fp/hard/libnosys.a(sbrk.o)
                              /opt/gcc-arm-none-eabi/bin/../lib/gcc/arm-none-eabi/8.2.1/../../../../arm-none-eabi/lib/thumb/v7e-m+fp/hard/libc_nano.a(lib_a-sbrkr.o) (_sbrk)

Allocating common symbols
Common symbol       size              file

__lock___atexit_recursive_mutex
                    0x1               /opt/gcc-arm-none-eabi/bin/../lib/gcc/arm-none-eabi/8.2.1/../../../../arm-none-eabi/lib/thumb/v7e-m+fp/hard/libc_nano.a(lib_a-lock.o)
LETIMER0_CLOCK_FREQ
                    0x4               bin/obj/cmu.o
__lock___arc4random_mutex
                    0x1               /opt/gcc-arm-none-eabi/bin/../lib/gcc/arm-none-eabi/8.2.1/../../../../arm-none-eabi/lib/thumb/v7e-m+fp/hard/libc_nano.a(lib_a-lock.o)
USB_CLOCK_FREQ      0x4               bin/obj/cmu.o
errno               0x4               /opt/gcc-arm-none-eabi/bin/../lib/gcc/arm-none-eabi/8.2.1/../../../../arm-none-eabi/lib/thumb/v7e-m+fp/hard/libc_nano.a(lib_a-reent.o)
CSEN_CLOCK_FREQ     0x4               bin/obj/cmu.o
LFA_CLOCK_FREQ      0x4               bin/obj/cmu.o
HFLE_CLOCK_FREQ     0x4               bin/obj/cmu.o
SYSTICK_CLOCK_FREQ  0x4               bin/obj/cmu.o
__lock___env_recursive_mutex
                    0x1               /opt/gcc-arm-none-eabi/bin/../lib/gcc/arm-none-eabi/8.2.1/../../../../arm-none-eabi/lib/thumb/v7e-m+fp/hard/libc_nano.a(lib_a-lock.o)
__lock___sinit_recursive_mutex
                    0x1               /opt/gcc-arm-none-eabi/bin/../lib/gcc/arm-none-eabi/8.2.1/../../../../arm-none-eabi/lib/thumb/v7e-m+fp/hard/libc_nano.a(lib_a-lock.o)
LETIMER1_CLOCK_FREQ
                    0x4               bin/obj/cmu.o
ADC0_CLOCK_FREQ     0x4               bin/obj/cmu.o
LFB_CLOCK_FREQ      0x4               bin/obj/cmu.o
HFCORE_CLOCK_FREQ   0x4               bin/obj/cmu.o
__lock___malloc_recursive_mutex
                    0x1               /opt/gcc-arm-none-eabi/bin/../lib/gcc/arm-none-eabi/8.2.1/../../../../arm-none-eabi/lib/thumb/v7e-m+fp/hard/libc_nano.a(lib_a-lock.o)
ADC1_CLOCK_FREQ     0x4               bin/obj/cmu.o
RTCC_CLOCK_FREQ     0x4               bin/obj/cmu.o
LEUART1_CLOCK_FREQ  0x4               bin/obj/cmu.o
LFE_CLOCK_FREQ      0x4               bin/obj/cmu.o
HFSRC_CLOCK_FREQ    0x4               bin/obj/cmu.o
HFBUS_CLOCK_FREQ    0x4               bin/obj/cmu.o
QSPI_CLOCK_FREQ     0x4               bin/obj/cmu.o
HFPERC_CLOCK_FREQ   0x4               bin/obj/cmu.o
HFEXP_CLOCK_FREQ    0x4               bin/obj/cmu.o
HFPERB_CLOCK_FREQ   0x4               bin/obj/cmu.o
LFC_CLOCK_FREQ      0x4               bin/obj/cmu.o
AUX_CLOCK_FREQ      0x4               bin/obj/cmu.o
HFPER_CLOCK_FREQ    0x4               bin/obj/cmu.o
SDIO_CLOCK_FREQ     0x4               bin/obj/cmu.o
__lock___at_quick_exit_mutex
                    0x1               /opt/gcc-arm-none-eabi/bin/../lib/gcc/arm-none-eabi/8.2.1/../../../../arm-none-eabi/lib/thumb/v7e-m+fp/hard/libc_nano.a(lib_a-lock.o)
HF_CLOCK_FREQ       0x4               bin/obj/cmu.o
LESENSE_CLOCK_FREQ  0x4               bin/obj/cmu.o
RTC_CLOCK_FREQ      0x4               bin/obj/cmu.o
LCD_CLOCK_FREQ      0x4               bin/obj/cmu.o
__lock___dd_hash_mutex
                    0x1               /opt/gcc-arm-none-eabi/bin/../lib/gcc/arm-none-eabi/8.2.1/../../../../arm-none-eabi/lib/thumb/v7e-m+fp/hard/libc_nano.a(lib_a-lock.o)
__lock___tz_mutex   0x1               /opt/gcc-arm-none-eabi/bin/../lib/gcc/arm-none-eabi/8.2.1/../../../../arm-none-eabi/lib/thumb/v7e-m+fp/hard/libc_nano.a(lib_a-lock.o)
LEUART0_CLOCK_FREQ  0x4               bin/obj/cmu.o
DBG_CLOCK_FREQ      0x4               bin/obj/cmu.o
__lock___sfp_recursive_mutex
                    0x1               /opt/gcc-arm-none-eabi/bin/../lib/gcc/arm-none-eabi/8.2.1/../../../../arm-none-eabi/lib/thumb/v7e-m+fp/hard/libc_nano.a(lib_a-lock.o)

Discarded input sections

 .text          0x0000000000000000        0x0 bin/obj/emu.o
 .data          0x0000000000000000        0x0 bin/obj/emu.o
 .bss           0x0000000000000000        0x0 bin/obj/emu.o
 .text.emu_dcdc_init
                0x0000000000000000      0x370 bin/obj/emu.o
 .text.emu_get_temperature
                0x0000000000000000       0x5c bin/obj/emu.o
 .text.emu_vmon_altavdd_config
                0x0000000000000000       0x6c bin/obj/emu.o
 .text          0x0000000000000000        0x0 bin/obj/crc.o
 .data          0x0000000000000000        0x0 bin/obj/crc.o
 .bss           0x0000000000000000        0x0 bin/obj/crc.o
 .text.calc_crc32
                0x0000000000000000       0x44 bin/obj/crc.o
 .text          0x0000000000000000        0x0 bin/obj/ldma.o
 .data          0x0000000000000000        0x0 bin/obj/ldma.o
 .bss           0x0000000000000000        0x0 bin/obj/ldma.o
 .text.ldma_init
                0x0000000000000000       0x38 bin/obj/ldma.o
 .text.ldma_sync_set
                0x0000000000000000        0xc bin/obj/ldma.o
 .text.ldma_sync_clear
                0x0000000000000000        0xc bin/obj/ldma.o
 .text.ldma_ch_config
                0x0000000000000000       0x2a bin/obj/ldma.o
 .text.ldma_ch_set_isr
                0x0000000000000000       0x10 bin/obj/ldma.o
 .text.ldma_ch_load
                0x0000000000000000       0x2c bin/obj/ldma.o
 .text.ldma_ch_req
                0x0000000000000000       0x14 bin/obj/ldma.o
 .text.ldma_ch_enable
                0x0000000000000000       0x14 bin/obj/ldma.o
 .text.ldma_ch_disable
                0x0000000000000000       0x14 bin/obj/ldma.o
 .text.ldma_ch_get_remaining_xfers
                0x0000000000000000       0x38 bin/obj/ldma.o
 .text          0x0000000000000000        0x0 bin/obj/dbg.o
 .data          0x0000000000000000        0x0 bin/obj/dbg.o
 .bss           0x0000000000000000        0x0 bin/obj/dbg.o
 .text.dbg_swo_putc
                0x0000000000000000        0x4 bin/obj/dbg.o
 .text.dbg_swo_send_uint16
                0x0000000000000000       0x26 bin/obj/dbg.o
 .text.dbg_swo_send_uint32
                0x0000000000000000       0x26 bin/obj/dbg.o
 .text          0x0000000000000000        0x0 bin/obj/crypto.o
 .data          0x0000000000000000        0x0 bin/obj/crypto.o
 .bss           0x0000000000000000        0x0 bin/obj/crypto.o
 .text.crypto_sha256
                0x0000000000000000      0x16c bin/obj/crypto.o
 .text.crypto_sha1
                0x0000000000000000      0x168 bin/obj/crypto.o
 .text          0x0000000000000000        0x0 bin/obj/exc_handler.o
 .data          0x0000000000000000        0x0 bin/obj/exc_handler.o
 .bss           0x0000000000000000        0x0 bin/obj/exc_handler.o
 .text          0x0000000000000000        0x0 bin/obj/msc.o
 .data          0x0000000000000000        0x0 bin/obj/msc.o
 .bss           0x0000000000000000        0x0 bin/obj/msc.o
 .text.msc_flash_page_erase
                0x0000000000000000       0x50 bin/obj/msc.o
 .text.msc_flash_page_write
                0x0000000000000000       0x84 bin/obj/msc.o
 .text.msc_flash_word_write
                0x0000000000000000       0x56 bin/obj/msc.o
 .data.g_psLockBits
                0x0000000000000000        0x4 bin/obj/msc.o
 .text          0x0000000000000000        0x0 bin/obj/qspi.o
 .data          0x0000000000000000        0x0 bin/obj/qspi.o
 .bss           0x0000000000000000        0x0 bin/obj/qspi.o
 .text.qspi_enter_xip
                0x0000000000000000       0x24 bin/obj/qspi.o
 .text.qspi_exit_xip
                0x0000000000000000       0x34 bin/obj/qspi.o
 .text.qspi_flash_busy_wait
                0x0000000000000000       0x16 bin/obj/qspi.o
 .text.qspi_flash_write_disable
                0x0000000000000000       0x30 bin/obj/qspi.o
 .text.qspi_flash_block_erase
                0x0000000000000000       0x2a bin/obj/qspi.o
 .text.qspi_flash_sector_erase
                0x0000000000000000       0x2a bin/obj/qspi.o
 .text.qspi_flash_chip_erase
                0x0000000000000000       0x26 bin/obj/qspi.o
 .text.qspi_flash_write_security
                0x0000000000000000       0x28 bin/obj/qspi.o
 .text          0x0000000000000000        0x0 bin/obj/gpio.o
 .data          0x0000000000000000        0x0 bin/obj/gpio.o
 .bss           0x0000000000000000        0x0 bin/obj/gpio.o
 .text          0x0000000000000000        0x0 bin/obj/main.o
 .data          0x0000000000000000        0x0 bin/obj/main.o
 .bss           0x0000000000000000        0x0 bin/obj/main.o
 .text          0x0000000000000000        0x0 bin/obj/rtcc.o
 .data          0x0000000000000000        0x0 bin/obj/rtcc.o
 .bss           0x0000000000000000        0x0 bin/obj/rtcc.o
 .text.rtcc_get_time
                0x0000000000000000        0xc bin/obj/rtcc.o
 .text.rtcc_set_time
                0x0000000000000000        0xc bin/obj/rtcc.o
 .text.rtcc_set_alarm
                0x0000000000000000       0x10 bin/obj/rtcc.o
 .text          0x0000000000000000        0x0 bin/obj/trng.o
 .data          0x0000000000000000        0x0 bin/obj/trng.o
 .bss           0x0000000000000000        0x0 bin/obj/trng.o
 .text.trng_pop_random
                0x0000000000000000       0x14 bin/obj/trng.o
 .text          0x0000000000000000        0x0 bin/obj/systick.o
 .data          0x0000000000000000        0x0 bin/obj/systick.o
 .bss           0x0000000000000000        0x0 bin/obj/systick.o
 .text          0x0000000000000000        0x0 bin/obj/i2c.o
 .data          0x0000000000000000        0x0 bin/obj/i2c.o
 .bss           0x0000000000000000        0x0 bin/obj/i2c.o
 .text.i2c2_init
                0x0000000000000000       0x78 bin/obj/i2c.o
 .text.i2c2_transmit
                0x0000000000000000       0xf0 bin/obj/i2c.o
 .text          0x0000000000000000        0x0 bin/obj/cmu.o
 .data          0x0000000000000000        0x0 bin/obj/cmu.o
 .bss           0x0000000000000000        0x0 bin/obj/cmu.o
 .text.cmu_hfxo_get_startup_current
                0x0000000000000000       0x24 bin/obj/cmu.o
 .text.cmu_hfxo_get_startup_cap
                0x0000000000000000       0x2c bin/obj/cmu.o
 .text.cmu_hfxo_get_steady_current
                0x0000000000000000       0x24 bin/obj/cmu.o
 .text.cmu_hfxo_get_steady_cap
                0x0000000000000000       0x2c bin/obj/cmu.o
 .text.cmu_hfxo_get_pda_ibtrim
                0x0000000000000000       0x2c bin/obj/cmu.o
 .text.cmu_hfxo_get_pda_current
                0x0000000000000000       0x44 bin/obj/cmu.o
 .text.cmu_hfxo_get_pma_ibtrim
                0x0000000000000000       0x1c bin/obj/cmu.o
 .text.cmu_hfxo_get_pma_current
                0x0000000000000000       0x40 bin/obj/cmu.o
 .text.cmu_lfxo_calib
                0x0000000000000000       0x88 bin/obj/cmu.o
 .text.cmu_lfxo_get_cap
                0x0000000000000000       0x24 bin/obj/cmu.o
 .text          0x0000000000000000        0x0 bin/obj/usart.o
 .data          0x0000000000000000        0x0 bin/obj/usart.o
 .bss           0x0000000000000000        0x0 bin/obj/usart.o
 .text.usart0_spi_transfer_byte
                0x0000000000000000       0x1c bin/obj/usart.o
 .text.usart0_spi_transfer
                0x0000000000000000       0x3c bin/obj/usart.o
 .text          0x0000000000000000        0x0 bin/obj/startup.o
 .data          0x0000000000000000        0x0 bin/obj/startup.o
 .bss           0x0000000000000000        0x0 bin/obj/startup.o
 .text          0x0000000000000000        0x0 bin/obj/adc.o
 .data          0x0000000000000000        0x0 bin/obj/adc.o
 .bss           0x0000000000000000        0x0 bin/obj/adc.o
 .text.adc_get_temperature
                0x0000000000000000       0xb8 bin/obj/adc.o
 .text          0x0000000000000000        0x0 bin/obj/printf/printf.o
 .data          0x0000000000000000        0x0 bin/obj/printf/printf.o
 .bss           0x0000000000000000        0x0 bin/obj/printf/printf.o
 .text._out_fct
                0x0000000000000000        0x6 bin/obj/printf/printf.o
 .text.sprintf  0x0000000000000000       0x28 bin/obj/printf/printf.o
 .text.vsnprintf
                0x0000000000000000       0x1c bin/obj/printf/printf.o
 .text.fctprintf
                0x0000000000000000       0x2c bin/obj/printf/printf.o
 .text          0x0000000000000000        0x0 bin/obj/md5/md5.o
 .data          0x0000000000000000        0x0 bin/obj/md5/md5.o
 .bss           0x0000000000000000        0x0 bin/obj/md5/md5.o
 .text.body     0x0000000000000000      0x770 bin/obj/md5/md5.o
 .text.md5_init
                0x0000000000000000       0x2c bin/obj/md5/md5.o
 .text.md5_update
                0x0000000000000000       0x7c bin/obj/md5/md5.o
 .text.md5_final
                0x0000000000000000       0xb2 bin/obj/md5/md5.o
 .debug_info    0x0000000000000000      0xcd4 bin/obj/md5/md5.o
 .debug_abbrev  0x0000000000000000      0x2a4 bin/obj/md5/md5.o
 .debug_loc     0x0000000000000000     0x121f bin/obj/md5/md5.o
 .debug_aranges
                0x0000000000000000       0x38 bin/obj/md5/md5.o
 .debug_ranges  0x0000000000000000       0x28 bin/obj/md5/md5.o
 .debug_line    0x0000000000000000      0x9bc bin/obj/md5/md5.o
 .debug_str     0x0000000000000000      0x612 bin/obj/md5/md5.o
 .comment       0x0000000000000000       0x76 bin/obj/md5/md5.o
 .debug_frame   0x0000000000000000       0xa0 bin/obj/md5/md5.o
 .ARM.attributes
                0x0000000000000000       0x34 bin/obj/md5/md5.o
 .text          0x0000000000000000        0x0 /opt/gcc-arm-none-eabi/bin/../lib/gcc/arm-none-eabi/8.2.1/../../../../arm-none-eabi/lib/thumb/v7e-m+fp/hard/libm.a(lib_a-sf_round.o)
 .data          0x0000000000000000        0x0 /opt/gcc-arm-none-eabi/bin/../lib/gcc/arm-none-eabi/8.2.1/../../../../arm-none-eabi/lib/thumb/v7e-m+fp/hard/libm.a(lib_a-sf_round.o)
 .bss           0x0000000000000000        0x0 /opt/gcc-arm-none-eabi/bin/../lib/gcc/arm-none-eabi/8.2.1/../../../../arm-none-eabi/lib/thumb/v7e-m+fp/hard/libm.a(lib_a-sf_round.o)
 .text          0x0000000000000000        0x0 /opt/gcc-arm-none-eabi/bin/../lib/gcc/arm-none-eabi/8.2.1/../../../../arm-none-eabi/lib/thumb/v7e-m+fp/hard/libc_nano.a(lib_a-malloc.o)
 .data          0x0000000000000000        0x0 /opt/gcc-arm-none-eabi/bin/../lib/gcc/arm-none-eabi/8.2.1/../../../../arm-none-eabi/lib/thumb/v7e-m+fp/hard/libc_nano.a(lib_a-malloc.o)
 .bss           0x0000000000000000        0x0 /opt/gcc-arm-none-eabi/bin/../lib/gcc/arm-none-eabi/8.2.1/../../../../arm-none-eabi/lib/thumb/v7e-m+fp/hard/libc_nano.a(lib_a-malloc.o)
 .text          0x0000000000000000        0x0 /opt/gcc-arm-none-eabi/bin/../lib/gcc/arm-none-eabi/8.2.1/../../../../arm-none-eabi/lib/thumb/v7e-m+fp/hard/libc_nano.a(lib_a-memcpy-stub.o)
 .data          0x0000000000000000        0x0 /opt/gcc-arm-none-eabi/bin/../lib/gcc/arm-none-eabi/8.2.1/../../../../arm-none-eabi/lib/thumb/v7e-m+fp/hard/libc_nano.a(lib_a-memcpy-stub.o)
 .bss           0x0000000000000000        0x0 /opt/gcc-arm-none-eabi/bin/../lib/gcc/arm-none-eabi/8.2.1/../../../../arm-none-eabi/lib/thumb/v7e-m+fp/hard/libc_nano.a(lib_a-memcpy-stub.o)
 .text.memcpy   0x0000000000000000       0x1c /opt/gcc-arm-none-eabi/bin/../lib/gcc/arm-none-eabi/8.2.1/../../../../arm-none-eabi/lib/thumb/v7e-m+fp/hard/libc_nano.a(lib_a-memcpy-stub.o)
 .debug_frame   0x0000000000000000       0x28 /opt/gcc-arm-none-eabi/bin/../lib/gcc/arm-none-eabi/8.2.1/../../../../arm-none-eabi/lib/thumb/v7e-m+fp/hard/libc_nano.a(lib_a-memcpy-stub.o)
 .ARM.attributes
                0x0000000000000000       0x34 /opt/gcc-arm-none-eabi/bin/../lib/gcc/arm-none-eabi/8.2.1/../../../../arm-none-eabi/lib/thumb/v7e-m+fp/hard/libc_nano.a(lib_a-memcpy-stub.o)
 .text          0x0000000000000000        0x0 /opt/gcc-arm-none-eabi/bin/../lib/gcc/arm-none-eabi/8.2.1/../../../../arm-none-eabi/lib/thumb/v7e-m+fp/hard/libc_nano.a(lib_a-memset.o)
 .data          0x0000000000000000        0x0 /opt/gcc-arm-none-eabi/bin/../lib/gcc/arm-none-eabi/8.2.1/../../../../arm-none-eabi/lib/thumb/v7e-m+fp/hard/libc_nano.a(lib_a-memset.o)
 .bss           0x0000000000000000        0x0 /opt/gcc-arm-none-eabi/bin/../lib/gcc/arm-none-eabi/8.2.1/../../../../arm-none-eabi/lib/thumb/v7e-m+fp/hard/libc_nano.a(lib_a-memset.o)
 .text.memset   0x0000000000000000       0x10 /opt/gcc-arm-none-eabi/bin/../lib/gcc/arm-none-eabi/8.2.1/../../../../arm-none-eabi/lib/thumb/v7e-m+fp/hard/libc_nano.a(lib_a-memset.o)
 .debug_frame   0x0000000000000000       0x20 /opt/gcc-arm-none-eabi/bin/../lib/gcc/arm-none-eabi/8.2.1/../../../../arm-none-eabi/lib/thumb/v7e-m+fp/hard/libc_nano.a(lib_a-memset.o)
 .ARM.attributes
                0x0000000000000000       0x34 /opt/gcc-arm-none-eabi/bin/../lib/gcc/arm-none-eabi/8.2.1/../../../../arm-none-eabi/lib/thumb/v7e-m+fp/hard/libc_nano.a(lib_a-memset.o)
 .text          0x0000000000000000        0x0 /opt/gcc-arm-none-eabi/bin/../lib/gcc/arm-none-eabi/8.2.1/../../../../arm-none-eabi/lib/thumb/v7e-m+fp/hard/libc_nano.a(lib_a-nano-freer.o)
 .data          0x0000000000000000        0x0 /opt/gcc-arm-none-eabi/bin/../lib/gcc/arm-none-eabi/8.2.1/../../../../arm-none-eabi/lib/thumb/v7e-m+fp/hard/libc_nano.a(lib_a-nano-freer.o)
 .bss           0x0000000000000000        0x0 /opt/gcc-arm-none-eabi/bin/../lib/gcc/arm-none-eabi/8.2.1/../../../../arm-none-eabi/lib/thumb/v7e-m+fp/hard/libc_nano.a(lib_a-nano-freer.o)
 .text          0x0000000000000000        0x0 /opt/gcc-arm-none-eabi/bin/../lib/gcc/arm-none-eabi/8.2.1/../../../../arm-none-eabi/lib/thumb/v7e-m+fp/hard/libc_nano.a(lib_a-nano-mallocr.o)
 .data          0x0000000000000000        0x0 /opt/gcc-arm-none-eabi/bin/../lib/gcc/arm-none-eabi/8.2.1/../../../../arm-none-eabi/lib/thumb/v7e-m+fp/hard/libc_nano.a(lib_a-nano-mallocr.o)
 .bss           0x0000000000000000        0x0 /opt/gcc-arm-none-eabi/bin/../lib/gcc/arm-none-eabi/8.2.1/../../../../arm-none-eabi/lib/thumb/v7e-m+fp/hard/libc_nano.a(lib_a-nano-mallocr.o)
 .text          0x0000000000000000        0x0 /opt/gcc-arm-none-eabi/bin/../lib/gcc/arm-none-eabi/8.2.1/../../../../arm-none-eabi/lib/thumb/v7e-m+fp/hard/libc_nano.a(lib_a-sbrkr.o)
 .data          0x0000000000000000        0x0 /opt/gcc-arm-none-eabi/bin/../lib/gcc/arm-none-eabi/8.2.1/../../../../arm-none-eabi/lib/thumb/v7e-m+fp/hard/libc_nano.a(lib_a-sbrkr.o)
 .bss           0x0000000000000000        0x0 /opt/gcc-arm-none-eabi/bin/../lib/gcc/arm-none-eabi/8.2.1/../../../../arm-none-eabi/lib/thumb/v7e-m+fp/hard/libc_nano.a(lib_a-sbrkr.o)
 .text          0x0000000000000000        0x0 /opt/gcc-arm-none-eabi/bin/../lib/gcc/arm-none-eabi/8.2.1/../../../../arm-none-eabi/lib/thumb/v7e-m+fp/hard/libc_nano.a(lib_a-impure.o)
 .data          0x0000000000000000        0x0 /opt/gcc-arm-none-eabi/bin/../lib/gcc/arm-none-eabi/8.2.1/../../../../arm-none-eabi/lib/thumb/v7e-m+fp/hard/libc_nano.a(lib_a-impure.o)
 .bss           0x0000000000000000        0x0 /opt/gcc-arm-none-eabi/bin/../lib/gcc/arm-none-eabi/8.2.1/../../../../arm-none-eabi/lib/thumb/v7e-m+fp/hard/libc_nano.a(lib_a-impure.o)
 .rodata._global_impure_ptr
                0x0000000000000000        0x4 /opt/gcc-arm-none-eabi/bin/../lib/gcc/arm-none-eabi/8.2.1/../../../../arm-none-eabi/lib/thumb/v7e-m+fp/hard/libc_nano.a(lib_a-impure.o)
 .text          0x0000000000000000        0x0 /opt/gcc-arm-none-eabi/bin/../lib/gcc/arm-none-eabi/8.2.1/../../../../arm-none-eabi/lib/thumb/v7e-m+fp/hard/libc_nano.a(lib_a-mlock.o)
 .data          0x0000000000000000        0x0 /opt/gcc-arm-none-eabi/bin/../lib/gcc/arm-none-eabi/8.2.1/../../../../arm-none-eabi/lib/thumb/v7e-m+fp/hard/libc_nano.a(lib_a-mlock.o)
 .bss           0x0000000000000000        0x0 /opt/gcc-arm-none-eabi/bin/../lib/gcc/arm-none-eabi/8.2.1/../../../../arm-none-eabi/lib/thumb/v7e-m+fp/hard/libc_nano.a(lib_a-mlock.o)
 .text          0x0000000000000000        0x0 /opt/gcc-arm-none-eabi/bin/../lib/gcc/arm-none-eabi/8.2.1/../../../../arm-none-eabi/lib/thumb/v7e-m+fp/hard/libc_nano.a(lib_a-reent.o)
 .data          0x0000000000000000        0x0 /opt/gcc-arm-none-eabi/bin/../lib/gcc/arm-none-eabi/8.2.1/../../../../arm-none-eabi/lib/thumb/v7e-m+fp/hard/libc_nano.a(lib_a-reent.o)
 .bss           0x0000000000000000        0x0 /opt/gcc-arm-none-eabi/bin/../lib/gcc/arm-none-eabi/8.2.1/../../../../arm-none-eabi/lib/thumb/v7e-m+fp/hard/libc_nano.a(lib_a-reent.o)
 .text.cleanup_glue
                0x0000000000000000       0x1a /opt/gcc-arm-none-eabi/bin/../lib/gcc/arm-none-eabi/8.2.1/../../../../arm-none-eabi/lib/thumb/v7e-m+fp/hard/libc_nano.a(lib_a-reent.o)
 .text._reclaim_reent
                0x0000000000000000       0xb8 /opt/gcc-arm-none-eabi/bin/../lib/gcc/arm-none-eabi/8.2.1/../../../../arm-none-eabi/lib/thumb/v7e-m+fp/hard/libc_nano.a(lib_a-reent.o)
 .text          0x0000000000000000        0x0 /opt/gcc-arm-none-eabi/bin/../lib/gcc/arm-none-eabi/8.2.1/../../../../arm-none-eabi/lib/thumb/v7e-m+fp/hard/libc_nano.a(lib_a-lock.o)
 .data          0x0000000000000000        0x0 /opt/gcc-arm-none-eabi/bin/../lib/gcc/arm-none-eabi/8.2.1/../../../../arm-none-eabi/lib/thumb/v7e-m+fp/hard/libc_nano.a(lib_a-lock.o)
 .bss           0x0000000000000000        0x0 /opt/gcc-arm-none-eabi/bin/../lib/gcc/arm-none-eabi/8.2.1/../../../../arm-none-eabi/lib/thumb/v7e-m+fp/hard/libc_nano.a(lib_a-lock.o)
 .text.__retarget_lock_init
                0x0000000000000000        0x2 /opt/gcc-arm-none-eabi/bin/../lib/gcc/arm-none-eabi/8.2.1/../../../../arm-none-eabi/lib/thumb/v7e-m+fp/hard/libc_nano.a(lib_a-lock.o)
 .text.__retarget_lock_init_recursive
                0x0000000000000000        0x2 /opt/gcc-arm-none-eabi/bin/../lib/gcc/arm-none-eabi/8.2.1/../../../../arm-none-eabi/lib/thumb/v7e-m+fp/hard/libc_nano.a(lib_a-lock.o)
 .text.__retarget_lock_close
                0x0000000000000000        0x2 /opt/gcc-arm-none-eabi/bin/../lib/gcc/arm-none-eabi/8.2.1/../../../../arm-none-eabi/lib/thumb/v7e-m+fp/hard/libc_nano.a(lib_a-lock.o)
 .text.__retarget_lock_close_recursive
                0x0000000000000000        0x2 /opt/gcc-arm-none-eabi/bin/../lib/gcc/arm-none-eabi/8.2.1/../../../../arm-none-eabi/lib/thumb/v7e-m+fp/hard/libc_nano.a(lib_a-lock.o)
 .text.__retarget_lock_acquire
                0x0000000000000000        0x2 /opt/gcc-arm-none-eabi/bin/../lib/gcc/arm-none-eabi/8.2.1/../../../../arm-none-eabi/lib/thumb/v7e-m+fp/hard/libc_nano.a(lib_a-lock.o)
 .text.__retarget_lock_try_acquire
                0x0000000000000000        0x4 /opt/gcc-arm-none-eabi/bin/../lib/gcc/arm-none-eabi/8.2.1/../../../../arm-none-eabi/lib/thumb/v7e-m+fp/hard/libc_nano.a(lib_a-lock.o)
 .text.__retarget_lock_try_acquire_recursive
                0x0000000000000000        0x4 /opt/gcc-arm-none-eabi/bin/../lib/gcc/arm-none-eabi/8.2.1/../../../../arm-none-eabi/lib/thumb/v7e-m+fp/hard/libc_nano.a(lib_a-lock.o)
 .text.__retarget_lock_release
                0x0000000000000000        0x2 /opt/gcc-arm-none-eabi/bin/../lib/gcc/arm-none-eabi/8.2.1/../../../../arm-none-eabi/lib/thumb/v7e-m+fp/hard/libc_nano.a(lib_a-lock.o)
 .data          0x0000000000000000        0x0 /opt/gcc-arm-none-eabi/bin/../lib/gcc/arm-none-eabi/8.2.1/thumb/v7e-m+fp/hard/libgcc.a(_arm_addsubdf3.o)
 .bss           0x0000000000000000        0x0 /opt/gcc-arm-none-eabi/bin/../lib/gcc/arm-none-eabi/8.2.1/thumb/v7e-m+fp/hard/libgcc.a(_arm_addsubdf3.o)
 .data          0x0000000000000000        0x0 /opt/gcc-arm-none-eabi/bin/../lib/gcc/arm-none-eabi/8.2.1/thumb/v7e-m+fp/hard/libgcc.a(_arm_muldivdf3.o)
 .bss           0x0000000000000000        0x0 /opt/gcc-arm-none-eabi/bin/../lib/gcc/arm-none-eabi/8.2.1/thumb/v7e-m+fp/hard/libgcc.a(_arm_muldivdf3.o)
 .data          0x0000000000000000        0x0 /opt/gcc-arm-none-eabi/bin/../lib/gcc/arm-none-eabi/8.2.1/thumb/v7e-m+fp/hard/libgcc.a(_arm_cmpdf2.o)
 .bss           0x0000000000000000        0x0 /opt/gcc-arm-none-eabi/bin/../lib/gcc/arm-none-eabi/8.2.1/thumb/v7e-m+fp/hard/libgcc.a(_arm_cmpdf2.o)
 .data          0x0000000000000000        0x0 /opt/gcc-arm-none-eabi/bin/../lib/gcc/arm-none-eabi/8.2.1/thumb/v7e-m+fp/hard/libgcc.a(_arm_fixdfsi.o)
 .bss           0x0000000000000000        0x0 /opt/gcc-arm-none-eabi/bin/../lib/gcc/arm-none-eabi/8.2.1/thumb/v7e-m+fp/hard/libgcc.a(_arm_fixdfsi.o)
 .data          0x0000000000000000        0x0 /opt/gcc-arm-none-eabi/bin/../lib/gcc/arm-none-eabi/8.2.1/thumb/v7e-m+fp/hard/libgcc.a(_arm_fixunsdfsi.o)
 .bss           0x0000000000000000        0x0 /opt/gcc-arm-none-eabi/bin/../lib/gcc/arm-none-eabi/8.2.1/thumb/v7e-m+fp/hard/libgcc.a(_arm_fixunsdfsi.o)
 .data          0x0000000000000000        0x0 /opt/gcc-arm-none-eabi/bin/../lib/gcc/arm-none-eabi/8.2.1/thumb/v7e-m+fp/hard/libgcc.a(_aeabi_uldivmod.o)
 .bss           0x0000000000000000        0x0 /opt/gcc-arm-none-eabi/bin/../lib/gcc/arm-none-eabi/8.2.1/thumb/v7e-m+fp/hard/libgcc.a(_aeabi_uldivmod.o)
 .data          0x0000000000000000        0x0 /opt/gcc-arm-none-eabi/bin/../lib/gcc/arm-none-eabi/8.2.1/thumb/v7e-m+fp/hard/libgcc.a(_udivmoddi4.o)
 .bss           0x0000000000000000        0x0 /opt/gcc-arm-none-eabi/bin/../lib/gcc/arm-none-eabi/8.2.1/thumb/v7e-m+fp/hard/libgcc.a(_udivmoddi4.o)
 .ARM.extab     0x0000000000000000        0x0 /opt/gcc-arm-none-eabi/bin/../lib/gcc/arm-none-eabi/8.2.1/thumb/v7e-m+fp/hard/libgcc.a(_udivmoddi4.o)
 .data          0x0000000000000000        0x0 /opt/gcc-arm-none-eabi/bin/../lib/gcc/arm-none-eabi/8.2.1/thumb/v7e-m+fp/hard/libgcc.a(_dvmd_tls.o)
 .bss           0x0000000000000000        0x0 /opt/gcc-arm-none-eabi/bin/../lib/gcc/arm-none-eabi/8.2.1/thumb/v7e-m+fp/hard/libgcc.a(_dvmd_tls.o)
 .text          0x0000000000000000        0x0 /opt/gcc-arm-none-eabi/bin/../lib/gcc/arm-none-eabi/8.2.1/../../../../arm-none-eabi/lib/thumb/v7e-m+fp/hard/libnosys.a(sbrk.o)
 .data          0x0000000000000000        0x0 /opt/gcc-arm-none-eabi/bin/../lib/gcc/arm-none-eabi/8.2.1/../../../../arm-none-eabi/lib/thumb/v7e-m+fp/hard/libnosys.a(sbrk.o)
 .bss           0x0000000000000000        0x0 /opt/gcc-arm-none-eabi/bin/../lib/gcc/arm-none-eabi/8.2.1/../../../../arm-none-eabi/lib/thumb/v7e-m+fp/hard/libnosys.a(sbrk.o)

Memory Configuration

Name             Origin             Length             Attributes
irom0            0x0000000000000000 0x0000000000200000 xr
irom1            0x000000000fe10000 0x0000000000008000 xr
irom2            0x0000000004000000 0x0000000000800000 xr
drom0            0x000000000fe00000 0x0000000000001000 r
drom1            0x00000000c0000000 0x0000000000800000 r
iram0            0x0000000010000000 0x0000000000080000 xrw
dram0            0x0000000020000000 0x0000000000080000 rw
*default*        0x0000000000000000 0xffffffffffffffff

Linker script and memory map

LOAD bin/obj/emu.o
LOAD bin/obj/crc.o
LOAD bin/obj/ldma.o
LOAD bin/obj/dbg.o
LOAD bin/obj/crypto.o
LOAD bin/obj/exc_handler.o
LOAD bin/obj/msc.o
LOAD bin/obj/qspi.o
LOAD bin/obj/gpio.o
LOAD bin/obj/main.o
LOAD bin/obj/rtcc.o
LOAD bin/obj/trng.o
LOAD bin/obj/systick.o
LOAD bin/obj/i2c.o
LOAD bin/obj/cmu.o
LOAD bin/obj/usart.o
LOAD bin/obj/startup.o
LOAD bin/obj/adc.o
LOAD bin/obj/printf/printf.o
LOAD bin/obj/md5/md5.o
LOAD /opt/gcc-arm-none-eabi/bin/../lib/gcc/arm-none-eabi/8.2.1/../../../../arm-none-eabi/lib/thumb/v7e-m+fp/hard/libm.a
LOAD /opt/gcc-arm-none-eabi/bin/../lib/gcc/arm-none-eabi/8.2.1/../../../../arm-none-eabi/lib/thumb/v7e-m+fp/hard/libc_nano.a
LOAD /opt/gcc-arm-none-eabi/bin/../lib/gcc/arm-none-eabi/8.2.1/thumb/v7e-m+fp/hard/libgcc.a
LOAD /opt/gcc-arm-none-eabi/bin/../lib/gcc/arm-none-eabi/8.2.1/../../../../arm-none-eabi/lib/thumb/v7e-m+fp/hard/libnosys.a
                0x0000000000000800                _min_heap_size = 0x800
                0x0000000000000400                _min_stack_size = 0x400
                0x0000000020080000                _estack = ((ORIGIN (dram0) + LENGTH (dram0)) & 0xfffffffffffffff8)

.isr_vector     0x0000000000000000      0x150
                0x0000000000000000                . = ALIGN (0x4)
                0x0000000000000000                _svect = .
 *(.isr_vector)
 .isr_vector    0x0000000000000000      0x150 bin/obj/startup.o
                0x0000000000000000                g_pfnVectors
                0x0000000000000150                . = ALIGN (0x4)
                0x0000000000000150                _evect = .

.text           0x0000000000000150     0x5160
                0x0000000000000150                . = ALIGN (0x4)
                0x0000000000000150                _stext = .
 *(.text)
 .text          0x0000000000000150      0x378 /opt/gcc-arm-none-eabi/bin/../lib/gcc/arm-none-eabi/8.2.1/thumb/v7e-m+fp/hard/libgcc.a(_arm_addsubdf3.o)
                0x0000000000000150                __aeabi_drsub
                0x0000000000000158                __aeabi_dsub
                0x0000000000000158                __subdf3
                0x000000000000015c                __adddf3
                0x000000000000015c                __aeabi_dadd
                0x00000000000003d4                __aeabi_ui2d
                0x00000000000003d4                __floatunsidf
                0x00000000000003f4                __floatsidf
                0x00000000000003f4                __aeabi_i2d
                0x0000000000000418                __extendsfdf2
                0x0000000000000418                __aeabi_f2d
                0x000000000000045c                __aeabi_ul2d
                0x000000000000045c                __floatundidf
                0x000000000000046c                __floatdidf
                0x000000000000046c                __aeabi_l2d
 .text          0x00000000000004c8      0x424 /opt/gcc-arm-none-eabi/bin/../lib/gcc/arm-none-eabi/8.2.1/thumb/v7e-m+fp/hard/libgcc.a(_arm_muldivdf3.o)
                0x00000000000004c8                __aeabi_dmul
                0x00000000000004c8                __muldf3
                0x000000000000071c                __aeabi_ddiv
                0x000000000000071c                __divdf3
 .text          0x00000000000008ec      0x110 /opt/gcc-arm-none-eabi/bin/../lib/gcc/arm-none-eabi/8.2.1/thumb/v7e-m+fp/hard/libgcc.a(_arm_cmpdf2.o)
                0x00000000000008ec                __gtdf2
                0x00000000000008ec                __gedf2
                0x00000000000008f4                __ltdf2
                0x00000000000008f4                __ledf2
                0x00000000000008fc                __cmpdf2
                0x00000000000008fc                __eqdf2
                0x00000000000008fc                __nedf2
                0x0000000000000978                __aeabi_cdrcmple
                0x0000000000000988                __aeabi_cdcmple
                0x0000000000000988                __aeabi_cdcmpeq
                0x0000000000000998                __aeabi_dcmpeq
                0x00000000000009ac                __aeabi_dcmplt
                0x00000000000009c0                __aeabi_dcmple
                0x00000000000009d4                __aeabi_dcmpge
                0x00000000000009e8                __aeabi_dcmpgt
 .text          0x00000000000009fc       0x50 /opt/gcc-arm-none-eabi/bin/../lib/gcc/arm-none-eabi/8.2.1/thumb/v7e-m+fp/hard/libgcc.a(_arm_fixdfsi.o)
                0x00000000000009fc                __fixdfsi
                0x00000000000009fc                __aeabi_d2iz
 .text          0x0000000000000a4c       0x40 /opt/gcc-arm-none-eabi/bin/../lib/gcc/arm-none-eabi/8.2.1/thumb/v7e-m+fp/hard/libgcc.a(_arm_fixunsdfsi.o)
                0x0000000000000a4c                __fixunsdfsi
                0x0000000000000a4c                __aeabi_d2uiz
 .text          0x0000000000000a8c       0x30 /opt/gcc-arm-none-eabi/bin/../lib/gcc/arm-none-eabi/8.2.1/thumb/v7e-m+fp/hard/libgcc.a(_aeabi_uldivmod.o)
                0x0000000000000a8c                __aeabi_uldivmod
 .text          0x0000000000000abc      0x2d0 /opt/gcc-arm-none-eabi/bin/../lib/gcc/arm-none-eabi/8.2.1/thumb/v7e-m+fp/hard/libgcc.a(_udivmoddi4.o)
                0x0000000000000abc                __udivmoddi4
 .text          0x0000000000000d8c        0x4 /opt/gcc-arm-none-eabi/bin/../lib/gcc/arm-none-eabi/8.2.1/thumb/v7e-m+fp/hard/libgcc.a(_dvmd_tls.o)
                0x0000000000000d8c                __aeabi_ldiv0
                0x0000000000000d8c                __aeabi_idiv0
 *(.text*)
 .text.emu_vmon_thresh_get
                0x0000000000000d90       0x5c bin/obj/emu.o
 .text.emu_vmon_thresh_calc
                0x0000000000000dec       0x90 bin/obj/emu.o
 .text._emu_isr
                0x0000000000000e7c       0x6c bin/obj/emu.o
                0x0000000000000e7c                _emu_isr
 .text.emu_init
                0x0000000000000ee8       0x34 bin/obj/emu.o
                0x0000000000000ee8                emu_init
 .text.emu_vmon_avdd_config
                0x0000000000000f1c       0xa8 bin/obj/emu.o
                0x0000000000000f1c                emu_vmon_avdd_config
 .text.emu_vmon_dvdd_config
                0x0000000000000fc4       0x6c bin/obj/emu.o
                0x0000000000000fc4                emu_vmon_dvdd_config
 .text.emu_vmon_iovdd_config
                0x0000000000001030       0x6c bin/obj/emu.o
                0x0000000000001030                emu_vmon_iovdd_config
 .text.crc_init
                0x000000000000109c       0x28 bin/obj/crc.o
                0x000000000000109c                crc_init
 .text._ldma_isr
                0x00000000000010c4       0x40 bin/obj/ldma.o
                0x00000000000010c4                _ldma_isr
 .text.dbg_init
                0x0000000000001104       0x10 bin/obj/dbg.o
                0x0000000000001104                dbg_init
 .text.dbg_swo_config
                0x0000000000001114       0x60 bin/obj/dbg.o
                0x0000000000001114                dbg_swo_config
 .text.dbg_swo_send_uint8
                0x0000000000001174       0x26 bin/obj/dbg.o
                0x0000000000001174                dbg_swo_send_uint8
 .text._putchar
                0x000000000000119a        0x6 bin/obj/dbg.o
                0x000000000000119a                _putchar
 .text.crypto_init
                0x00000000000011a0       0x14 bin/obj/crypto.o
                0x00000000000011a0                crypto_init
 .text._hardfault_isr
                0x00000000000011b4       0x18 bin/obj/exc_handler.o
                0x00000000000011b4                _hardfault_isr
 .text._memmanage_isr
                0x00000000000011cc       0x18 bin/obj/exc_handler.o
                0x00000000000011cc                _memmanage_isr
 .text._busfault_isr
                0x00000000000011e4       0x18 bin/obj/exc_handler.o
                0x00000000000011e4                _busfault_isr
 .text._usagefault_isr
                0x00000000000011fc       0x18 bin/obj/exc_handler.o
                0x00000000000011fc                _usagefault_isr
 .text.hardfault_trace_stack
                0x0000000000001214       0xe4 bin/obj/exc_handler.o
                0x0000000000001214                hardfault_trace_stack
 .text.memmanage_trace_stack
                0x00000000000012f8       0xf4 bin/obj/exc_handler.o
                0x00000000000012f8                memmanage_trace_stack
 .text.busfault_trace_stack
                0x00000000000013ec      0x100 bin/obj/exc_handler.o
                0x00000000000013ec                busfault_trace_stack
 .text.usagefault_trace_stack
                0x00000000000014ec       0xe8 bin/obj/exc_handler.o
                0x00000000000014ec                usagefault_trace_stack
 .text.msc_flash_lock
                0x00000000000015d4       0x16 bin/obj/msc.o
                0x00000000000015d4                msc_flash_lock
 .text.msc_flash_unlock
                0x00000000000015ea       0x20 bin/obj/msc.o
                0x00000000000015ea                msc_flash_unlock
 .text.msc_init
                0x000000000000160a       0x36 bin/obj/msc.o
                0x000000000000160a                msc_init
 .text.msc_config_waitstates
                0x0000000000001640       0xa8 bin/obj/msc.o
                0x0000000000001640                msc_config_waitstates
 .text.qspi_flash_cmd.part.1
                0x00000000000016e8      0x16c bin/obj/qspi.o
 .text.qspi_flash_cmd
                0x0000000000001854       0x44 bin/obj/qspi.o
                0x0000000000001854                qspi_flash_cmd
 .text.qspi_flash_reset
                0x0000000000001898       0x36 bin/obj/qspi.o
                0x0000000000001898                qspi_flash_reset
 .text.qspi_flash_read_status
                0x00000000000018ce       0x2a bin/obj/qspi.o
                0x00000000000018ce                qspi_flash_read_status
 .text.qspi_flash_read_config
                0x00000000000018f8       0x2a bin/obj/qspi.o
                0x00000000000018f8                qspi_flash_read_config
 .text.qspi_flash_write_enable
                0x0000000000001922       0x30 bin/obj/qspi.o
                0x0000000000001922                qspi_flash_write_enable
 .text.qspi_flash_write_status_config
                0x0000000000001952       0x30 bin/obj/qspi.o
                0x0000000000001952                qspi_flash_write_status_config
 .text.qspi_flash_read_jedec_id
                0x0000000000001982       0x40 bin/obj/qspi.o
                0x0000000000001982                qspi_flash_read_jedec_id
 .text.qspi_flash_read_security
                0x00000000000019c2       0x20 bin/obj/qspi.o
                0x00000000000019c2                qspi_flash_read_security
 .text.qspi_flash_unprotect_all_blocks
                0x00000000000019e2       0x22 bin/obj/qspi.o
                0x00000000000019e2                qspi_flash_unprotect_all_blocks
 .text.qspi_flash_init
                0x0000000000001a04       0x34 bin/obj/qspi.o
                0x0000000000001a04                qspi_flash_init
 .text.qspi_init
                0x0000000000001a38       0x98 bin/obj/qspi.o
                0x0000000000001a38                qspi_init
 .text.gpio_init
                0x0000000000001ad0       0xe8 bin/obj/gpio.o
                0x0000000000001ad0                gpio_init
 .text.get_device_name
                0x0000000000001bb8       0x80 bin/obj/main.o
                0x0000000000001bb8                get_device_name
 .text.init     0x0000000000001c38      0x9b4 bin/obj/main.o
                0x0000000000001c38                init
 .text.startup.main
                0x00000000000025ec      0x128 bin/obj/main.o
                0x00000000000025ec                main
 .text.rtcc_init
                0x0000000000002714       0x64 bin/obj/rtcc.o
                0x0000000000002714                rtcc_init
 .text.trng_init
                0x0000000000002778       0x50 bin/obj/trng.o
                0x0000000000002778                trng_init
 .text._systick_isr
                0x00000000000027c8       0x18 bin/obj/systick.o
                0x00000000000027c8                _systick_isr
 .text.systick_init
                0x00000000000027e0       0x30 bin/obj/systick.o
                0x00000000000027e0                systick_init
 .text.delay_ms
                0x0000000000002810       0x28 bin/obj/systick.o
                0x0000000000002810                delay_ms
 .text.i2c0_init
                0x0000000000002838       0x7c bin/obj/i2c.o
                0x0000000000002838                i2c0_init
 .text.i2c0_transmit
                0x00000000000028b4       0xf8 bin/obj/i2c.o
                0x00000000000028b4                i2c0_transmit
 .text.i2c1_init
                0x00000000000029ac       0x78 bin/obj/i2c.o
                0x00000000000029ac                i2c1_init
 .text.i2c1_transmit
                0x0000000000002a24       0xf0 bin/obj/i2c.o
                0x0000000000002a24                i2c1_transmit
 .text.cmu_update_clocks
                0x0000000000002b14      0x4b4 bin/obj/cmu.o
                0x0000000000002b14                cmu_update_clocks
 .text.cmu_config_waitstates
                0x0000000000002fc8       0x20 bin/obj/cmu.o
                0x0000000000002fc8                cmu_config_waitstates
 .text.cmu_hfrco_calib
                0x0000000000002fe8       0x2c bin/obj/cmu.o
                0x0000000000002fe8                cmu_hfrco_calib
 .text.cmu_init
                0x0000000000003014      0x19c bin/obj/cmu.o
                0x0000000000003014                cmu_init
 .text.cmu_ushfrco_calib
                0x00000000000031b0       0x58 bin/obj/cmu.o
                0x00000000000031b0                cmu_ushfrco_calib
 .text.cmu_auxhfrco_calib
                0x0000000000003208       0x48 bin/obj/cmu.o
                0x0000000000003208                cmu_auxhfrco_calib
 .text.cmu_hfxo_startup_calib
                0x0000000000003250       0x2c bin/obj/cmu.o
                0x0000000000003250                cmu_hfxo_startup_calib
 .text.cmu_hfxo_steady_calib
                0x000000000000327c       0x2c bin/obj/cmu.o
                0x000000000000327c                cmu_hfxo_steady_calib
 .text.usart0_init
                0x00000000000032a8       0xa4 bin/obj/usart.o
                0x00000000000032a8                usart0_init
 .text._default_isr
                0x000000000000334c        0x2 bin/obj/startup.o
                0x000000000000334c                _timer3_isr
                0x000000000000334c                _wtimer2_isr
                0x000000000000334c                _ebi_isr
                0x000000000000334c                _timer5_isr
                0x000000000000334c                _letimer0_isr
                0x000000000000334c                _cmu_isr
                0x000000000000334c                _acmp2_3_isr
                0x000000000000334c                _msc_isr
                0x000000000000334c                _pcnt1_isr
                0x000000000000334c                _can1_isr
                0x000000000000334c                _eth_isr
                0x000000000000334c                _usart4_rx_isr
                0x000000000000334c                _uart0_tx_isr
                0x000000000000334c                _uart0_rx_isr
                0x000000000000334c                _wdog1_isr
                0x000000000000334c                _usart0_rx_isr
                0x000000000000334c                _csen_isr
                0x000000000000334c                _wtimer1_isr
                0x000000000000334c                _can0_isr
                0x000000000000334c                _usart4_tx_isr
                0x000000000000334c                _letimer1_isr
                0x000000000000334c                _usart2_rx_isr
                0x000000000000334c                _usart5_tx_isr
                0x000000000000334c                _gpio_even_isr
                0x000000000000334c                _lesense_isr
                0x000000000000334c                _uart1_tx_isr
                0x000000000000334c                _wdog0_isr
                0x000000000000334c                _smu_isr
                0x000000000000334c                _usart2_tx_isr
                0x000000000000334c                _usb_isr
                0x000000000000334c                _usart3_tx_isr
                0x000000000000334c                _crypto0_isr
                0x000000000000334c                _usart3_rx_isr
                0x000000000000334c                _pendsv_isr
                0x000000000000334c                _leuart1_isr
                0x000000000000334c                _usart0_tx_isr
                0x000000000000334c                _wtimer0_isr
                0x000000000000334c                _idac0_isr
                0x000000000000334c                _vdac0_isr
                0x000000000000334c                _timer4_isr
                0x000000000000334c                _debugmon_isr
                0x000000000000334c                _adc1_isr
                0x000000000000334c                _trng0_isr
                0x000000000000334c                _timer0_isr
                0x000000000000334c                _rtc_isr
                0x000000000000334c                _lcd_isr
                0x000000000000334c                _acmp0_1_isr
                0x000000000000334c                _uart1_rx_isr
                0x000000000000334c                _i2c0_isr
                0x000000000000334c                _timer2_isr
                0x000000000000334c                _timer6_isr
                0x000000000000334c                _nmi_isr
                0x000000000000334c                _i2c2_isr
                0x000000000000334c                _svc_isr
                0x000000000000334c                _rtcc_isr
                0x000000000000334c                _pcnt2_isr
                0x000000000000334c                _adc0_isr
                0x000000000000334c                _wtimer3_isr
                0x000000000000334c                _timer1_isr
                0x000000000000334c                _pcnt0_isr
                0x000000000000334c                _sdio_isr
                0x000000000000334c                _usart1_rx_isr
                0x000000000000334c                _cryotimer_isr
                0x000000000000334c                _usart5_rx_isr
                0x000000000000334c                _leuart0_isr
                0x000000000000334c                _usart1_tx_isr
                0x000000000000334c                _fpueh_isr
                0x000000000000334c                _qspi0_isr
                0x000000000000334c                _i2c1_isr
                0x000000000000334c                _default_isr
                0x000000000000334c                _gpio_odd_isr
 .text.__libc_init_array
                0x000000000000334e        0x2 bin/obj/startup.o
                0x000000000000334e                __libc_init_array
 .text._reset_isr
                0x0000000000003350       0xa4 bin/obj/startup.o
                0x0000000000003350                _reset_isr
 .text.adc_init
                0x00000000000033f4       0x40 bin/obj/adc.o
                0x00000000000033f4                adc_init
 .text.adc_get_avdd
                0x0000000000003434       0x88 bin/obj/adc.o
                0x0000000000003434                adc_get_avdd
 .text.adc_get_dvdd
                0x00000000000034bc       0x88 bin/obj/adc.o
                0x00000000000034bc                adc_get_dvdd
 .text.adc_get_iovdd
                0x0000000000003544       0x88 bin/obj/adc.o
                0x0000000000003544                adc_get_iovdd
 .text.adc_get_corevdd
                0x00000000000035cc       0x88 bin/obj/adc.o
                0x00000000000035cc                adc_get_corevdd
 .text._out_buffer
                0x0000000000003654        0x8 bin/obj/printf/printf.o
 .text._out_null
                0x000000000000365c        0x2 bin/obj/printf/printf.o
 .text._ntoa_format
                0x000000000000365e      0x14a bin/obj/printf/printf.o
 .text._ntoa_long
                0x00000000000037a8       0x84 bin/obj/printf/printf.o
 .text._ntoa_long_long
                0x000000000000382c       0x98 bin/obj/printf/printf.o
 .text._out_char
                0x00000000000038c4        0x8 bin/obj/printf/printf.o
 *fill*         0x00000000000038cc        0x4 
 .text._vsnprintf
                0x00000000000038d0      0x6dc bin/obj/printf/printf.o
 .text.printf   0x0000000000003fac       0x28 bin/obj/printf/printf.o
                0x0000000000003fac                printf
 .text.snprintf
                0x0000000000003fd4       0x28 bin/obj/printf/printf.o
                0x0000000000003fd4                snprintf
 .text.roundf   0x0000000000003ffc       0x60 /opt/gcc-arm-none-eabi/bin/../lib/gcc/arm-none-eabi/8.2.1/../../../../arm-none-eabi/lib/thumb/v7e-m+fp/hard/libm.a(lib_a-sf_round.o)
                0x0000000000003ffc                roundf
 .text.malloc   0x000000000000405c       0x10 /opt/gcc-arm-none-eabi/bin/../lib/gcc/arm-none-eabi/8.2.1/../../../../arm-none-eabi/lib/thumb/v7e-m+fp/hard/libc_nano.a(lib_a-malloc.o)
                0x000000000000405c                malloc
 .text.free     0x000000000000406c       0x10 /opt/gcc-arm-none-eabi/bin/../lib/gcc/arm-none-eabi/8.2.1/../../../../arm-none-eabi/lib/thumb/v7e-m+fp/hard/libc_nano.a(lib_a-malloc.o)
                0x000000000000406c                free
 .text._free_r  0x000000000000407c       0x9c /opt/gcc-arm-none-eabi/bin/../lib/gcc/arm-none-eabi/8.2.1/../../../../arm-none-eabi/lib/thumb/v7e-m+fp/hard/libc_nano.a(lib_a-nano-freer.o)
                0x000000000000407c                _free_r
 .text._malloc_r
                0x0000000000004118       0xb4 /opt/gcc-arm-none-eabi/bin/../lib/gcc/arm-none-eabi/8.2.1/../../../../arm-none-eabi/lib/thumb/v7e-m+fp/hard/libc_nano.a(lib_a-nano-mallocr.o)
                0x0000000000004118                _malloc_r
 .text._sbrk_r  0x00000000000041cc       0x20 /opt/gcc-arm-none-eabi/bin/../lib/gcc/arm-none-eabi/8.2.1/../../../../arm-none-eabi/lib/thumb/v7e-m+fp/hard/libc_nano.a(lib_a-sbrkr.o)
                0x00000000000041cc                _sbrk_r
 .text.__malloc_lock
                0x00000000000041ec        0xc /opt/gcc-arm-none-eabi/bin/../lib/gcc/arm-none-eabi/8.2.1/../../../../arm-none-eabi/lib/thumb/v7e-m+fp/hard/libc_nano.a(lib_a-mlock.o)
                0x00000000000041ec                __malloc_lock
 .text.__malloc_unlock
                0x00000000000041f8        0xc /opt/gcc-arm-none-eabi/bin/../lib/gcc/arm-none-eabi/8.2.1/../../../../arm-none-eabi/lib/thumb/v7e-m+fp/hard/libc_nano.a(lib_a-mlock.o)
                0x00000000000041f8                __malloc_unlock
 .text.__retarget_lock_acquire_recursive
                0x0000000000004204        0x2 /opt/gcc-arm-none-eabi/bin/../lib/gcc/arm-none-eabi/8.2.1/../../../../arm-none-eabi/lib/thumb/v7e-m+fp/hard/libc_nano.a(lib_a-lock.o)
                0x0000000000004204                __retarget_lock_acquire_recursive
 .text.__retarget_lock_release_recursive
                0x0000000000004206        0x2 /opt/gcc-arm-none-eabi/bin/../lib/gcc/arm-none-eabi/8.2.1/../../../../arm-none-eabi/lib/thumb/v7e-m+fp/hard/libc_nano.a(lib_a-lock.o)
                0x0000000000004206                __retarget_lock_release_recursive
 .text._sbrk    0x0000000000004208       0x1c /opt/gcc-arm-none-eabi/bin/../lib/gcc/arm-none-eabi/8.2.1/../../../../arm-none-eabi/lib/thumb/v7e-m+fp/hard/libnosys.a(sbrk.o)
                0x0000000000004208                _sbrk
 *(.rodata)
 *(.rodata*)
 .rodata.__FUNCTION__.7588
                0x0000000000004224       0x16 bin/obj/exc_handler.o
 .rodata.__FUNCTION__.7601
                0x000000000000423a       0x16 bin/obj/exc_handler.o
 .rodata.__FUNCTION__.7614
                0x0000000000004250       0x15 bin/obj/exc_handler.o
 .rodata.__FUNCTION__.7627
                0x0000000000004265       0x17 bin/obj/exc_handler.o
 .rodata.busfault_trace_stack.str1.1
                0x000000000000427c       0x4f bin/obj/exc_handler.o
 .rodata.hardfault_trace_stack.str1.1
                0x00000000000042cb      0x178 bin/obj/exc_handler.o
 .rodata.memmanage_trace_stack.str1.1
                0x0000000000004443       0x5f bin/obj/exc_handler.o
 .rodata.usagefault_trace_stack.str1.1
                0x00000000000044a2       0x3a bin/obj/exc_handler.o
 .rodata.CSWTCH.53
                0x00000000000044dc      0x1ac bin/obj/main.o
 .rodata.__FUNCTION__.9376
                0x0000000000004688        0x5 bin/obj/main.o
 .rodata.__FUNCTION__.9387
                0x000000000000468d        0x5 bin/obj/main.o
 .rodata.get_device_name.str1.1
                0x0000000000004692       0x14 bin/obj/main.o
 .rodata.init.str1.1
                0x00000000000046a6      0x8ab bin/obj/main.o
 .rodata.main.str1.1
                0x0000000000004f51       0xd5 bin/obj/main.o
 .rodata.str1.1
                0x0000000000005026      0x233 bin/obj/main.o
 *fill*         0x0000000000005259        0x7 
 .rodata.pow10.5152
                0x0000000000005260       0x50 bin/obj/printf/printf.o
 *(.glue_7)
 .glue_7        0x00000000000052b0        0x0 linker stubs
 *(.glue_7t)
 .glue_7t       0x00000000000052b0        0x0 linker stubs
 *(.init)
 *(.fini)
                0x00000000000052b0                . = ALIGN (0x4)
                0x00000000000052b0                _etext = .

.vfp11_veneer   0x00000000000052b0        0x0
 .vfp11_veneer  0x00000000000052b0        0x0 linker stubs

.v4_bx          0x00000000000052b0        0x0
 .v4_bx         0x00000000000052b0        0x0 linker stubs

.iplt           0x00000000000052b0        0x0
 .iplt          0x00000000000052b0        0x0 bin/obj/emu.o

.ARM.extab
 *(.ARM.extab* .gnu.linkonce.armextab.*)

.ARM            0x00000000000052b0        0x8
                0x00000000000052b0                __exidx_start = .
 *(.ARM.exidx*)
 .ARM.exidx     0x00000000000052b0        0x8 /opt/gcc-arm-none-eabi/bin/../lib/gcc/arm-none-eabi/8.2.1/thumb/v7e-m+fp/hard/libgcc.a(_udivmoddi4.o)
                0x00000000000052b8                __exidx_end = .

.rel.dyn        0x00000000000052b8        0x0
 .rel.iplt      0x00000000000052b8        0x0 bin/obj/emu.o

.ARM.attributes
                0x00000000000052b8       0x34
 *(.ARM.attributes)
 .ARM.attributes
                0x00000000000052b8       0x34 bin/obj/emu.o
 .ARM.attributes
                0x00000000000052ec       0x34 bin/obj/crc.o
 .ARM.attributes
                0x0000000000005320       0x34 bin/obj/ldma.o
 .ARM.attributes
                0x0000000000005354       0x34 bin/obj/dbg.o
 .ARM.attributes
                0x0000000000005388       0x34 bin/obj/crypto.o
 .ARM.attributes
                0x00000000000053bc       0x34 bin/obj/exc_handler.o
 .ARM.attributes
                0x00000000000053f0       0x34 bin/obj/msc.o
 .ARM.attributes
                0x0000000000005424       0x34 bin/obj/qspi.o
 .ARM.attributes
                0x0000000000005458       0x34 bin/obj/gpio.o
 .ARM.attributes
                0x000000000000548c       0x34 bin/obj/main.o
 .ARM.attributes
                0x00000000000054c0       0x34 bin/obj/rtcc.o
 .ARM.attributes
                0x00000000000054f4       0x34 bin/obj/trng.o
 .ARM.attributes
                0x0000000000005528       0x34 bin/obj/systick.o
 .ARM.attributes
                0x000000000000555c       0x34 bin/obj/i2c.o
 .ARM.attributes
                0x0000000000005590       0x34 bin/obj/cmu.o
 .ARM.attributes
                0x00000000000055c4       0x34 bin/obj/usart.o
 .ARM.attributes
                0x00000000000055f8       0x34 bin/obj/startup.o
 .ARM.attributes
                0x000000000000562c       0x34 bin/obj/adc.o
 .ARM.attributes
                0x0000000000005660       0x34 bin/obj/printf/printf.o
 .ARM.attributes
                0x0000000000005694       0x34 /opt/gcc-arm-none-eabi/bin/../lib/gcc/arm-none-eabi/8.2.1/../../../../arm-none-eabi/lib/thumb/v7e-m+fp/hard/libm.a(lib_a-sf_round.o)
 .ARM.attributes
                0x00000000000056c8       0x34 /opt/gcc-arm-none-eabi/bin/../lib/gcc/arm-none-eabi/8.2.1/../../../../arm-none-eabi/lib/thumb/v7e-m+fp/hard/libc_nano.a(lib_a-malloc.o)
 .ARM.attributes
                0x00000000000056fc       0x34 /opt/gcc-arm-none-eabi/bin/../lib/gcc/arm-none-eabi/8.2.1/../../../../arm-none-eabi/lib/thumb/v7e-m+fp/hard/libc_nano.a(lib_a-nano-freer.o)
 .ARM.attributes
                0x0000000000005730       0x34 /opt/gcc-arm-none-eabi/bin/../lib/gcc/arm-none-eabi/8.2.1/../../../../arm-none-eabi/lib/thumb/v7e-m+fp/hard/libc_nano.a(lib_a-nano-mallocr.o)
 .ARM.attributes
                0x0000000000005764       0x34 /opt/gcc-arm-none-eabi/bin/../lib/gcc/arm-none-eabi/8.2.1/../../../../arm-none-eabi/lib/thumb/v7e-m+fp/hard/libc_nano.a(lib_a-sbrkr.o)
 .ARM.attributes
                0x0000000000005798       0x32 /opt/gcc-arm-none-eabi/bin/../lib/gcc/arm-none-eabi/8.2.1/../../../../arm-none-eabi/lib/thumb/v7e-m+fp/hard/libc_nano.a(lib_a-impure.o)
 .ARM.attributes
                0x00000000000057ca       0x34 /opt/gcc-arm-none-eabi/bin/../lib/gcc/arm-none-eabi/8.2.1/../../../../arm-none-eabi/lib/thumb/v7e-m+fp/hard/libc_nano.a(lib_a-mlock.o)
 .ARM.attributes
                0x00000000000057fe       0x34 /opt/gcc-arm-none-eabi/bin/../lib/gcc/arm-none-eabi/8.2.1/../../../../arm-none-eabi/lib/thumb/v7e-m+fp/hard/libc_nano.a(lib_a-reent.o)
 .ARM.attributes
                0x0000000000005832       0x34 /opt/gcc-arm-none-eabi/bin/../lib/gcc/arm-none-eabi/8.2.1/../../../../arm-none-eabi/lib/thumb/v7e-m+fp/hard/libc_nano.a(lib_a-lock.o)
 .ARM.attributes
                0x0000000000005866       0x1e /opt/gcc-arm-none-eabi/bin/../lib/gcc/arm-none-eabi/8.2.1/thumb/v7e-m+fp/hard/libgcc.a(_arm_addsubdf3.o)
 .ARM.attributes
                0x0000000000005884       0x1e /opt/gcc-arm-none-eabi/bin/../lib/gcc/arm-none-eabi/8.2.1/thumb/v7e-m+fp/hard/libgcc.a(_arm_muldivdf3.o)
 .ARM.attributes
                0x00000000000058a2       0x1e /opt/gcc-arm-none-eabi/bin/../lib/gcc/arm-none-eabi/8.2.1/thumb/v7e-m+fp/hard/libgcc.a(_arm_cmpdf2.o)
 .ARM.attributes
                0x00000000000058c0       0x1e /opt/gcc-arm-none-eabi/bin/../lib/gcc/arm-none-eabi/8.2.1/thumb/v7e-m+fp/hard/libgcc.a(_arm_fixdfsi.o)
 .ARM.attributes
                0x00000000000058de       0x1e /opt/gcc-arm-none-eabi/bin/../lib/gcc/arm-none-eabi/8.2.1/thumb/v7e-m+fp/hard/libgcc.a(_arm_fixunsdfsi.o)
 .ARM.attributes
                0x00000000000058fc       0x1e /opt/gcc-arm-none-eabi/bin/../lib/gcc/arm-none-eabi/8.2.1/thumb/v7e-m+fp/hard/libgcc.a(_aeabi_uldivmod.o)
 .ARM.attributes
                0x000000000000591a       0x34 /opt/gcc-arm-none-eabi/bin/../lib/gcc/arm-none-eabi/8.2.1/thumb/v7e-m+fp/hard/libgcc.a(_udivmoddi4.o)
 .ARM.attributes
                0x000000000000594e       0x1e /opt/gcc-arm-none-eabi/bin/../lib/gcc/arm-none-eabi/8.2.1/thumb/v7e-m+fp/hard/libgcc.a(_dvmd_tls.o)
 .ARM.attributes
                0x000000000000596c       0x34 /opt/gcc-arm-none-eabi/bin/../lib/gcc/arm-none-eabi/8.2.1/../../../../arm-none-eabi/lib/thumb/v7e-m+fp/hard/libnosys.a(sbrk.o)

.preinit_array  0x00000000000052b8        0x0
                [!provide]                        PROVIDE (__preinit_array_start = .)
 *(.preinit_array*)
                [!provide]                        PROVIDE (__preinit_array_end = .)

.init_array     0x00000000000052b8        0x0
                [!provide]                        PROVIDE (__init_array_start = .)
 *(SORT_BY_NAME(.init_array.*))
 *(.init_array*)
                [!provide]                        PROVIDE (__init_array_end = .)

.fini_array     0x00000000000052b8        0x0
                [!provide]                        PROVIDE (__fini_array_start = .)
 *(.fini_array*)
 *(SORT_BY_NAME(.fini_array.*))
                [!provide]                        PROVIDE (__fini_array_end = .)
                0x00000000000052b8                _siiram0 = LOADADDR (.iram0.text)

.iram0.text     0x0000000010000000        0x0 load address 0x00000000000052b8
                0x0000000010000000                . = ALIGN (0x4)
                0x0000000010000000                _siram0 = .
 *(.iram0.text)
 *(.iram0.text*)
                0x0000000010000000                . = ALIGN (0x4)
                0x0000000010000000                _eiram0 = .

.irom1.text     0x000000000fe10000        0x0
                0x000000000fe10000                . = ALIGN (0x4)
                0x000000000fe10000                _sirom1 = .
 *(.irom1.text)
 *(.irom1.text*)
                0x000000000fe10000                . = ALIGN (0x4)
                0x000000000fe10000                _eirom1 = .

.irom2.text     0x0000000004000000        0x0
                0x0000000004000000                . = ALIGN (0x4)
                0x0000000004000000                _sirom2 = .
 *(.irom2.text)
 *(.irom2.text*)
                0x0000000004000000                . = ALIGN (0x4)
                0x0000000004000000                _eirom2 = .
                0x00000000000052b8                _sidata = LOADADDR (.data)

.data           0x0000000020000000       0x7c load address 0x00000000000052b8
                0x0000000020000000                . = ALIGN (0x4)
                0x0000000020000000                _sdata = .
 *(.data)
 *(.data*)
 .data.g_psInitCalibrationTable
                0x0000000020000000        0x4 bin/obj/msc.o
                0x0000000020000000                g_psInitCalibrationTable
 .data.AUXHFRCO_VALUE
                0x0000000020000004        0x4 bin/obj/cmu.o
                0x0000000020000004                AUXHFRCO_VALUE
 .data.HFRCO_VALUE
                0x0000000020000008        0x4 bin/obj/cmu.o
                0x0000000020000008                HFRCO_VALUE
 .data.LFRCO_VALUE
                0x000000002000000c        0x4 bin/obj/cmu.o
                0x000000002000000c                LFRCO_VALUE
 .data.ULFRCO_VALUE
                0x0000000020000010        0x4 bin/obj/cmu.o
                0x0000000020000010                ULFRCO_VALUE
 .data.USHFRCO_VALUE
                0x0000000020000014        0x4 bin/obj/cmu.o
                0x0000000020000014                USHFRCO_VALUE
 .data._impure_ptr
                0x0000000020000018        0x4 /opt/gcc-arm-none-eabi/bin/../lib/gcc/arm-none-eabi/8.2.1/../../../../arm-none-eabi/lib/thumb/v7e-m+fp/hard/libc_nano.a(lib_a-impure.o)
                0x0000000020000018                _impure_ptr
 .data.impure_data
                0x000000002000001c       0x60 /opt/gcc-arm-none-eabi/bin/../lib/gcc/arm-none-eabi/8.2.1/../../../../arm-none-eabi/lib/thumb/v7e-m+fp/hard/libc_nano.a(lib_a-impure.o)
                0x000000002000007c                . = ALIGN (0x4)
                0x000000002000007c                _edata = .

.igot.plt       0x000000002000007c        0x0 load address 0x0000000000005334
 .igot.plt      0x000000002000007c        0x0 bin/obj/emu.o

.drom0.data     0x000000000fe00000        0x0
                0x000000000fe00000                . = ALIGN (0x4)
                0x000000000fe00000                _sdrom0 = .
 *(.drom0.data)
 *(.drom0.data*)
                0x000000000fe00000                . = ALIGN (0x4)
                0x000000000fe00000                _edrom0 = .

.drom1.data     0x00000000c0000000        0x0
                0x00000000c0000000                . = ALIGN (0x4)
                0x00000000c0000000                _sdrom1 = .
 *(.drom1.data)
 *(.drom1.data*)
                0x00000000c0000000                . = ALIGN (0x4)
                0x00000000c0000000                _edrom1 = .

.bss            0x0000000020000080      0x10c
                0x0000000020000080                . = ALIGN (0x4)
                0x0000000020000080                _sbss = .
                0x0000000020000080                __bss_start__ = _sbss
 *(.bss)
 *(.bss*)
 .bss.g_ubAVDDLow
                0x0000000020000080        0x1 bin/obj/emu.o
                0x0000000020000080                g_ubAVDDLow
 .bss.g_ubAltAVDDLow
                0x0000000020000081        0x1 bin/obj/emu.o
                0x0000000020000081                g_ubAltAVDDLow
 .bss.g_ubDVDDLow
                0x0000000020000082        0x1 bin/obj/emu.o
                0x0000000020000082                g_ubDVDDLow
 .bss.g_ubIOVDDLow
                0x0000000020000083        0x1 bin/obj/emu.o
                0x0000000020000083                g_ubIOVDDLow
 .bss.ppfChannelISR
                0x0000000020000084       0x60 bin/obj/ldma.o
 *fill*         0x00000000200000e4        0x4 
 .bss.ullLastTask.9393
                0x00000000200000e8        0x8 bin/obj/main.o
 .bss.g_ullSystemTick
                0x00000000200000f0        0x8 bin/obj/systick.o
                0x00000000200000f0                g_ullSystemTick
 .bss.__malloc_free_list
                0x00000000200000f8        0x4 /opt/gcc-arm-none-eabi/bin/../lib/gcc/arm-none-eabi/8.2.1/../../../../arm-none-eabi/lib/thumb/v7e-m+fp/hard/libc_nano.a(lib_a-nano-mallocr.o)
                0x00000000200000f8                __malloc_free_list
 .bss.__malloc_sbrk_start
                0x00000000200000fc        0x4 /opt/gcc-arm-none-eabi/bin/../lib/gcc/arm-none-eabi/8.2.1/../../../../arm-none-eabi/lib/thumb/v7e-m+fp/hard/libc_nano.a(lib_a-nano-mallocr.o)
                0x00000000200000fc                __malloc_sbrk_start
 .bss.heap_end.5501
                0x0000000020000100        0x4 /opt/gcc-arm-none-eabi/bin/../lib/gcc/arm-none-eabi/8.2.1/../../../../arm-none-eabi/lib/thumb/v7e-m+fp/hard/libnosys.a(sbrk.o)
 *(COMMON)
 COMMON         0x0000000020000104       0x78 bin/obj/cmu.o
                0x0000000020000104                LETIMER0_CLOCK_FREQ
                0x0000000020000108                USB_CLOCK_FREQ
                0x000000002000010c                CSEN_CLOCK_FREQ
                0x0000000020000110                LFA_CLOCK_FREQ
                0x0000000020000114                HFLE_CLOCK_FREQ
                0x0000000020000118                SYSTICK_CLOCK_FREQ
                0x000000002000011c                LETIMER1_CLOCK_FREQ
                0x0000000020000120                ADC0_CLOCK_FREQ
                0x0000000020000124                LFB_CLOCK_FREQ
                0x0000000020000128                HFCORE_CLOCK_FREQ
                0x000000002000012c                ADC1_CLOCK_FREQ
                0x0000000020000130                RTCC_CLOCK_FREQ
                0x0000000020000134                LEUART1_CLOCK_FREQ
                0x0000000020000138                LFE_CLOCK_FREQ
                0x000000002000013c                HFSRC_CLOCK_FREQ
                0x0000000020000140                HFBUS_CLOCK_FREQ
                0x0000000020000144                QSPI_CLOCK_FREQ
                0x0000000020000148                HFPERC_CLOCK_FREQ
                0x000000002000014c                HFEXP_CLOCK_FREQ
                0x0000000020000150                HFPERB_CLOCK_FREQ
                0x0000000020000154                LFC_CLOCK_FREQ
                0x0000000020000158                AUX_CLOCK_FREQ
                0x000000002000015c                HFPER_CLOCK_FREQ
                0x0000000020000160                SDIO_CLOCK_FREQ
                0x0000000020000164                HF_CLOCK_FREQ
                0x0000000020000168                LESENSE_CLOCK_FREQ
                0x000000002000016c                RTC_CLOCK_FREQ
                0x0000000020000170                LCD_CLOCK_FREQ
                0x0000000020000174                LEUART0_CLOCK_FREQ
                0x0000000020000178                DBG_CLOCK_FREQ
 COMMON         0x000000002000017c        0x4 /opt/gcc-arm-none-eabi/bin/../lib/gcc/arm-none-eabi/8.2.1/../../../../arm-none-eabi/lib/thumb/v7e-m+fp/hard/libc_nano.a(lib_a-reent.o)
                0x000000002000017c                errno
 COMMON         0x0000000020000180        0x9 /opt/gcc-arm-none-eabi/bin/../lib/gcc/arm-none-eabi/8.2.1/../../../../arm-none-eabi/lib/thumb/v7e-m+fp/hard/libc_nano.a(lib_a-lock.o)
                0x0000000020000180                __lock___atexit_recursive_mutex
                0x0000000020000181                __lock___arc4random_mutex
                0x0000000020000182                __lock___env_recursive_mutex
                0x0000000020000183                __lock___sinit_recursive_mutex
                0x0000000020000184                __lock___malloc_recursive_mutex
                0x0000000020000185                __lock___at_quick_exit_mutex
                0x0000000020000186                __lock___dd_hash_mutex
                0x0000000020000187                __lock___tz_mutex
                0x0000000020000188                __lock___sfp_recursive_mutex
                0x000000002000018c                . = ALIGN (0x4)
 *fill*         0x0000000020000189        0x3 
                0x000000002000018c                _ebss = .
                0x000000002000018c                __bss_end__ = _ebss
                0x000000002000018c                PROVIDE (end = _ebss)
                [!provide]                        PROVIDE (_end = _ebss)

.min_heap_stack
                0x000000002000018c      0xc00
                0x000000002000018c                . = ALIGN (0x4)
                0x000000002000098c                . = (. + _min_heap_size)
 *fill*         0x000000002000018c      0x800 
                0x0000000020000d8c                . = (. + _min_stack_size)
 *fill*         0x000000002000098c      0x400 
                0x0000000020000d8c                . = ALIGN (0x4)

/DISCARD/
 libc.a(*)
 libm.a(*)
 libgcc.a(*)
OUTPUT(bin/v1.gateway.elf elf32-littlearm)

.debug_info     0x0000000000000000    0x12a73
 .debug_info    0x0000000000000000     0x1f0e bin/obj/emu.o
 .debug_info    0x0000000000001f0e      0x6b8 bin/obj/crc.o
 .debug_info    0x00000000000025c6      0xd9d bin/obj/ldma.o
 .debug_info    0x0000000000003363      0xfc2 bin/obj/dbg.o
 .debug_info    0x0000000000004325      0xc2b bin/obj/crypto.o
 .debug_info    0x0000000000004f50      0xf6a bin/obj/exc_handler.o
 .debug_info    0x0000000000005eba      0x587 bin/obj/msc.o
 .debug_info    0x0000000000006441     0x24ae bin/obj/qspi.o
 .debug_info    0x00000000000088ef      0x787 bin/obj/gpio.o
 .debug_info    0x0000000000009076     0x2602 bin/obj/main.o
 .debug_info    0x000000000000b678      0xa5a bin/obj/rtcc.o
 .debug_info    0x000000000000c0d2      0x67b bin/obj/trng.o
 .debug_info    0x000000000000c74d      0x606 bin/obj/systick.o
 .debug_info    0x000000000000cd53      0xb86 bin/obj/i2c.o
 .debug_info    0x000000000000d8d9     0x1530 bin/obj/cmu.o
 .debug_info    0x000000000000ee09     0x13de bin/obj/usart.o
 .debug_info    0x00000000000101e7      0x409 bin/obj/startup.o
 .debug_info    0x00000000000105f0     0x1211 bin/obj/adc.o
 .debug_info    0x0000000000011801     0x1272 bin/obj/printf/printf.o

.debug_abbrev   0x0000000000000000     0x2a39
 .debug_abbrev  0x0000000000000000      0x3ab bin/obj/emu.o
 .debug_abbrev  0x00000000000003ab      0x154 bin/obj/crc.o
 .debug_abbrev  0x00000000000004ff      0x25b bin/obj/ldma.o
 .debug_abbrev  0x000000000000075a      0x291 bin/obj/dbg.o
 .debug_abbrev  0x00000000000009eb      0x1cf bin/obj/crypto.o
 .debug_abbrev  0x0000000000000bba      0x1f8 bin/obj/exc_handler.o
 .debug_abbrev  0x0000000000000db2      0x1a0 bin/obj/msc.o
 .debug_abbrev  0x0000000000000f52      0x45c bin/obj/qspi.o
 .debug_abbrev  0x00000000000013ae       0xf9 bin/obj/gpio.o
 .debug_abbrev  0x00000000000014a7      0x3f9 bin/obj/main.o
 .debug_abbrev  0x00000000000018a0      0x169 bin/obj/rtcc.o
 .debug_abbrev  0x0000000000001a09       0xf3 bin/obj/trng.o
 .debug_abbrev  0x0000000000001afc      0x181 bin/obj/systick.o
 .debug_abbrev  0x0000000000001c7d      0x1c2 bin/obj/i2c.o
 .debug_abbrev  0x0000000000001e3f      0x2d2 bin/obj/cmu.o
 .debug_abbrev  0x0000000000002111      0x266 bin/obj/usart.o
 .debug_abbrev  0x0000000000002377      0x172 bin/obj/startup.o
 .debug_abbrev  0x00000000000024e9      0x152 bin/obj/adc.o
 .debug_abbrev  0x000000000000263b      0x3fe bin/obj/printf/printf.o

.debug_loc      0x0000000000000000     0x4dc2
 .debug_loc     0x0000000000000000      0xc74 bin/obj/emu.o
 .debug_loc     0x0000000000000c74       0xd7 bin/obj/crc.o
 .debug_loc     0x0000000000000d4b      0x1a2 bin/obj/ldma.o
 .debug_loc     0x0000000000000eed       0x64 bin/obj/dbg.o
 .debug_loc     0x0000000000000f51      0x500 bin/obj/crypto.o
 .debug_loc     0x0000000000001451       0xe8 bin/obj/exc_handler.o
 .debug_loc     0x0000000000001539       0xfb bin/obj/msc.o
 .debug_loc     0x0000000000001634      0x970 bin/obj/qspi.o
 .debug_loc     0x0000000000001fa4      0x33c bin/obj/main.o
 .debug_loc     0x00000000000022e0       0x1a bin/obj/systick.o
 .debug_loc     0x00000000000022fa      0x5ca bin/obj/i2c.o
 .debug_loc     0x00000000000028c4      0x31c bin/obj/cmu.o
 .debug_loc     0x0000000000002be0      0x21c bin/obj/usart.o
 .debug_loc     0x0000000000002dfc       0xdd bin/obj/startup.o
 .debug_loc     0x0000000000002ed9      0x25f bin/obj/adc.o
 .debug_loc     0x0000000000003138     0x1c8a bin/obj/printf/printf.o

.debug_aranges  0x0000000000000000      0x5d8
 .debug_aranges
                0x0000000000000000       0x68 bin/obj/emu.o
 .debug_aranges
                0x0000000000000068       0x28 bin/obj/crc.o
 .debug_aranges
                0x0000000000000090       0x70 bin/obj/ldma.o
 .debug_aranges
                0x0000000000000100       0x50 bin/obj/dbg.o
 .debug_aranges
                0x0000000000000150       0x30 bin/obj/crypto.o
 .debug_aranges
                0x0000000000000180       0x58 bin/obj/exc_handler.o
 .debug_aranges
                0x00000000000001d8       0x50 bin/obj/msc.o
 .debug_aranges
                0x0000000000000228       0xb8 bin/obj/qspi.o
 .debug_aranges
                0x00000000000002e0       0x20 bin/obj/gpio.o
 .debug_aranges
                0x0000000000000300       0x30 bin/obj/main.o
 .debug_aranges
                0x0000000000000330       0x38 bin/obj/rtcc.o
 .debug_aranges
                0x0000000000000368       0x28 bin/obj/trng.o
 .debug_aranges
                0x0000000000000390       0x30 bin/obj/systick.o
 .debug_aranges
                0x00000000000003c0       0x48 bin/obj/i2c.o
 .debug_aranges
                0x0000000000000408       0xa8 bin/obj/cmu.o
 .debug_aranges
                0x00000000000004b0       0x30 bin/obj/usart.o
 .debug_aranges
                0x00000000000004e0       0x30 bin/obj/startup.o
 .debug_aranges
                0x0000000000000510       0x48 bin/obj/adc.o
 .debug_aranges
                0x0000000000000558       0x80 bin/obj/printf/printf.o

.debug_ranges   0x0000000000000000      0x960
 .debug_ranges  0x0000000000000000       0x88 bin/obj/emu.o
 .debug_ranges  0x0000000000000088       0x18 bin/obj/crc.o
 .debug_ranges  0x00000000000000a0       0x78 bin/obj/ldma.o
 .debug_ranges  0x0000000000000118       0x40 bin/obj/dbg.o
 .debug_ranges  0x0000000000000158      0x120 bin/obj/crypto.o
 .debug_ranges  0x0000000000000278       0x48 bin/obj/exc_handler.o
 .debug_ranges  0x00000000000002c0       0x58 bin/obj/msc.o
 .debug_ranges  0x0000000000000318      0x188 bin/obj/qspi.o
 .debug_ranges  0x00000000000004a0       0x10 bin/obj/gpio.o
 .debug_ranges  0x00000000000004b0       0xb8 bin/obj/main.o
 .debug_ranges  0x0000000000000568       0x28 bin/obj/rtcc.o
 .debug_ranges  0x0000000000000590       0x18 bin/obj/trng.o
 .debug_ranges  0x00000000000005a8       0x20 bin/obj/systick.o
 .debug_ranges  0x00000000000005c8       0x38 bin/obj/i2c.o
 .debug_ranges  0x0000000000000600       0xb0 bin/obj/cmu.o
 .debug_ranges  0x00000000000006b0       0x20 bin/obj/usart.o
 .debug_ranges  0x00000000000006d0       0x20 bin/obj/startup.o
 .debug_ranges  0x00000000000006f0       0x38 bin/obj/adc.o
 .debug_ranges  0x0000000000000728      0x238 bin/obj/printf/printf.o

.debug_line     0x0000000000000000     0x6846
 .debug_line    0x0000000000000000      0x9f5 bin/obj/emu.o
 .debug_line    0x00000000000009f5      0x214 bin/obj/crc.o
 .debug_line    0x0000000000000c09      0x40c bin/obj/ldma.o
 .debug_line    0x0000000000001015      0x2e6 bin/obj/dbg.o
 .debug_line    0x00000000000012fb      0x5c1 bin/obj/crypto.o
 .debug_line    0x00000000000018bc      0x43f bin/obj/exc_handler.o
 .debug_line    0x0000000000001cfb      0x50a bin/obj/msc.o
 .debug_line    0x0000000000002205      0x958 bin/obj/qspi.o
 .debug_line    0x0000000000002b5d      0x28d bin/obj/gpio.o
 .debug_line    0x0000000000002dea      0x5b5 bin/obj/main.o
 .debug_line    0x000000000000339f      0x268 bin/obj/rtcc.o
 .debug_line    0x0000000000003607      0x1f8 bin/obj/trng.o
 .debug_line    0x00000000000037ff      0x1e3 bin/obj/systick.o
 .debug_line    0x00000000000039e2      0x95d bin/obj/i2c.o
 .debug_line    0x000000000000433f      0xdc5 bin/obj/cmu.o
 .debug_line    0x0000000000005104      0x374 bin/obj/usart.o
 .debug_line    0x0000000000005478      0x20f bin/obj/startup.o
 .debug_line    0x0000000000005687      0x592 bin/obj/adc.o
 .debug_line    0x0000000000005c19      0xc2d bin/obj/printf/printf.o

.debug_str      0x0000000000000000     0x3043
 .debug_str     0x0000000000000000     0x1254 bin/obj/emu.o
                                       0x1386 (size before relaxing)
 .debug_str     0x0000000000001254      0x2ce bin/obj/crc.o
                                        0x582 (size before relaxing)
 .debug_str     0x0000000000001522      0x1d7 bin/obj/ldma.o
                                        0xacc (size before relaxing)
 .debug_str     0x00000000000016f9      0x4a3 bin/obj/dbg.o
                                        0x9dc (size before relaxing)
 .debug_str     0x0000000000001b9c      0x1b3 bin/obj/crypto.o
                                        0x6df (size before relaxing)
 .debug_str     0x0000000000001d4f      0x1e9 bin/obj/exc_handler.o
                                        0x41e (size before relaxing)
 .debug_str     0x0000000000001f38       0x92 bin/obj/msc.o
                                        0x402 (size before relaxing)
 .debug_str     0x0000000000001fca      0x53d bin/obj/qspi.o
                                       0x10ef (size before relaxing)
 .debug_str     0x0000000000002507       0xb2 bin/obj/gpio.o
                                        0x5a4 (size before relaxing)
 .debug_str     0x00000000000025b9      0x295 bin/obj/main.o
                                       0x119e (size before relaxing)
 .debug_str     0x000000000000284e       0x96 bin/obj/rtcc.o
                                        0x841 (size before relaxing)
 .debug_str     0x00000000000028e4       0x72 bin/obj/trng.o
                                        0x56e (size before relaxing)
 .debug_str     0x0000000000002956       0x44 bin/obj/systick.o
                                        0x53b (size before relaxing)
 .debug_str     0x000000000000299a       0xa0 bin/obj/i2c.o
                                        0x898 (size before relaxing)
 .debug_str     0x0000000000002a3a      0x19b bin/obj/cmu.o
                                        0xdba (size before relaxing)
 .debug_str     0x0000000000002bd5      0x100 bin/obj/usart.o
                                        0xcdd (size before relaxing)
 .debug_str     0x0000000000002cd5       0xaf bin/obj/startup.o
                                        0x2e2 (size before relaxing)
 .debug_str     0x0000000000002d84      0x169 bin/obj/adc.o
                                        0xd43 (size before relaxing)
 .debug_str     0x0000000000002eed      0x156 bin/obj/printf/printf.o
                                        0x33d (size before relaxing)

.comment        0x0000000000000000       0x75
 .comment       0x0000000000000000       0x75 bin/obj/emu.o
                                         0x76 (size before relaxing)
 .comment       0x0000000000000075       0x76 bin/obj/crc.o
 .comment       0x0000000000000075       0x76 bin/obj/ldma.o
 .comment       0x0000000000000075       0x76 bin/obj/dbg.o
 .comment       0x0000000000000075       0x76 bin/obj/crypto.o
 .comment       0x0000000000000075       0x76 bin/obj/exc_handler.o
 .comment       0x0000000000000075       0x76 bin/obj/msc.o
 .comment       0x0000000000000075       0x76 bin/obj/qspi.o
 .comment       0x0000000000000075       0x76 bin/obj/gpio.o
 .comment       0x0000000000000075       0x76 bin/obj/main.o
 .comment       0x0000000000000075       0x76 bin/obj/rtcc.o
 .comment       0x0000000000000075       0x76 bin/obj/trng.o
 .comment       0x0000000000000075       0x76 bin/obj/systick.o
 .comment       0x0000000000000075       0x76 bin/obj/i2c.o
 .comment       0x0000000000000075       0x76 bin/obj/cmu.o
 .comment       0x0000000000000075       0x76 bin/obj/usart.o
 .comment       0x0000000000000075       0x76 bin/obj/startup.o
 .comment       0x0000000000000075       0x76 bin/obj/adc.o
 .comment       0x0000000000000075       0x76 bin/obj/printf/printf.o

.debug_frame    0x0000000000000000     0x12a0
 .debug_frame   0x0000000000000000      0x130 bin/obj/emu.o
 .debug_frame   0x0000000000000130       0x3c bin/obj/crc.o
 .debug_frame   0x000000000000016c       0xe8 bin/obj/ldma.o
 .debug_frame   0x0000000000000254       0x98 bin/obj/dbg.o
 .debug_frame   0x00000000000002ec       0x78 bin/obj/crypto.o
 .debug_frame   0x0000000000000364       0xb0 bin/obj/exc_handler.o
 .debug_frame   0x0000000000000414       0xcc bin/obj/msc.o
 .debug_frame   0x00000000000004e0      0x254 bin/obj/qspi.o
 .debug_frame   0x0000000000000734       0x28 bin/obj/gpio.o
 .debug_frame   0x000000000000075c       0x98 bin/obj/main.o
 .debug_frame   0x00000000000007f4       0x58 bin/obj/rtcc.o
 .debug_frame   0x000000000000084c       0x30 bin/obj/trng.o
 .debug_frame   0x000000000000087c       0x60 bin/obj/systick.o
 .debug_frame   0x00000000000008dc       0xb8 bin/obj/i2c.o
 .debug_frame   0x0000000000000994      0x160 bin/obj/cmu.o
 .debug_frame   0x0000000000000af4       0x5c bin/obj/usart.o
 .debug_frame   0x0000000000000b50       0x48 bin/obj/startup.o
 .debug_frame   0x0000000000000b98       0x80 bin/obj/adc.o
 .debug_frame   0x0000000000000c18      0x1cc bin/obj/printf/printf.o
 .debug_frame   0x0000000000000de4       0x34 /opt/gcc-arm-none-eabi/bin/../lib/gcc/arm-none-eabi/8.2.1/../../../../arm-none-eabi/lib/thumb/v7e-m+fp/hard/libm.a(lib_a-sf_round.o)
 .debug_frame   0x0000000000000e18       0x30 /opt/gcc-arm-none-eabi/bin/../lib/gcc/arm-none-eabi/8.2.1/../../../../arm-none-eabi/lib/thumb/v7e-m+fp/hard/libc_nano.a(lib_a-malloc.o)
 .debug_frame   0x0000000000000e48       0x38 /opt/gcc-arm-none-eabi/bin/../lib/gcc/arm-none-eabi/8.2.1/../../../../arm-none-eabi/lib/thumb/v7e-m+fp/hard/libc_nano.a(lib_a-nano-freer.o)
 .debug_frame   0x0000000000000e80       0x30 /opt/gcc-arm-none-eabi/bin/../lib/gcc/arm-none-eabi/8.2.1/../../../../arm-none-eabi/lib/thumb/v7e-m+fp/hard/libc_nano.a(lib_a-nano-mallocr.o)
 .debug_frame   0x0000000000000eb0       0x2c /opt/gcc-arm-none-eabi/bin/../lib/gcc/arm-none-eabi/8.2.1/../../../../arm-none-eabi/lib/thumb/v7e-m+fp/hard/libc_nano.a(lib_a-sbrkr.o)
 .debug_frame   0x0000000000000edc       0x30 /opt/gcc-arm-none-eabi/bin/../lib/gcc/arm-none-eabi/8.2.1/../../../../arm-none-eabi/lib/thumb/v7e-m+fp/hard/libc_nano.a(lib_a-mlock.o)
 .debug_frame   0x0000000000000f0c       0x5c /opt/gcc-arm-none-eabi/bin/../lib/gcc/arm-none-eabi/8.2.1/../../../../arm-none-eabi/lib/thumb/v7e-m+fp/hard/libc_nano.a(lib_a-reent.o)
 .debug_frame   0x0000000000000f68       0xb0 /opt/gcc-arm-none-eabi/bin/../lib/gcc/arm-none-eabi/8.2.1/../../../../arm-none-eabi/lib/thumb/v7e-m+fp/hard/libc_nano.a(lib_a-lock.o)
 .debug_frame   0x0000000000001018       0xac /opt/gcc-arm-none-eabi/bin/../lib/gcc/arm-none-eabi/8.2.1/thumb/v7e-m+fp/hard/libgcc.a(_arm_addsubdf3.o)
 .debug_frame   0x00000000000010c4       0x50 /opt/gcc-arm-none-eabi/bin/../lib/gcc/arm-none-eabi/8.2.1/thumb/v7e-m+fp/hard/libgcc.a(_arm_muldivdf3.o)
 .debug_frame   0x0000000000001114       0xc4 /opt/gcc-arm-none-eabi/bin/../lib/gcc/arm-none-eabi/8.2.1/thumb/v7e-m+fp/hard/libgcc.a(_arm_cmpdf2.o)
 .debug_frame   0x00000000000011d8       0x24 /opt/gcc-arm-none-eabi/bin/../lib/gcc/arm-none-eabi/8.2.1/thumb/v7e-m+fp/hard/libgcc.a(_arm_fixdfsi.o)
 .debug_frame   0x00000000000011fc       0x24 /opt/gcc-arm-none-eabi/bin/../lib/gcc/arm-none-eabi/8.2.1/thumb/v7e-m+fp/hard/libgcc.a(_arm_fixunsdfsi.o)
 .debug_frame   0x0000000000001220       0x2c /opt/gcc-arm-none-eabi/bin/../lib/gcc/arm-none-eabi/8.2.1/thumb/v7e-m+fp/hard/libgcc.a(_aeabi_uldivmod.o)
 .debug_frame   0x000000000000124c       0x34 /opt/gcc-arm-none-eabi/bin/../lib/gcc/arm-none-eabi/8.2.1/thumb/v7e-m+fp/hard/libgcc.a(_udivmoddi4.o)
 .debug_frame   0x0000000000001280       0x20 /opt/gcc-arm-none-eabi/bin/../lib/gcc/arm-none-eabi/8.2.1/../../../../arm-none-eabi/lib/thumb/v7e-m+fp/hard/libnosys.a(sbrk.o)
